
Line Follower.elf:     file format elf32-avr

Sections:
Idx Name          Size      VMA       LMA       File off  Algn
  0 .text         00001fa0  00000000  00000000  00000094  2**1
                  CONTENTS, ALLOC, LOAD, READONLY, CODE
  1 .data         00000094  00800060  00001fa0  00002034  2**0
                  CONTENTS, ALLOC, LOAD, DATA
  2 .bss          0000004c  008000f4  008000f4  000020c8  2**0
                  ALLOC
  3 .comment      0000005c  00000000  00000000  000020c8  2**0
                  CONTENTS, READONLY
  4 .note.gnu.avr.deviceinfo 0000003c  00000000  00000000  00002124  2**2
                  CONTENTS, READONLY
  5 .debug_aranges 00000430  00000000  00000000  00002160  2**0
                  CONTENTS, READONLY, DEBUGGING
  6 .debug_info   00003577  00000000  00000000  00002590  2**0
                  CONTENTS, READONLY, DEBUGGING
  7 .debug_abbrev 0000127a  00000000  00000000  00005b07  2**0
                  CONTENTS, READONLY, DEBUGGING
  8 .debug_line   000012ed  00000000  00000000  00006d81  2**0
                  CONTENTS, READONLY, DEBUGGING
  9 .debug_frame  00000a54  00000000  00000000  00008070  2**2
                  CONTENTS, READONLY, DEBUGGING
 10 .debug_str    00000b69  00000000  00000000  00008ac4  2**0
                  CONTENTS, READONLY, DEBUGGING
 11 .debug_loc    00001d34  00000000  00000000  0000962d  2**0
                  CONTENTS, READONLY, DEBUGGING
 12 .debug_ranges 00000398  00000000  00000000  0000b361  2**0
                  CONTENTS, READONLY, DEBUGGING

Disassembly of section .text:

00000000 <__vectors>:
       0:	0c 94 31 00 	jmp	0x62	; 0x62 <__ctors_end>
       4:	0c 94 46 0a 	jmp	0x148c	; 0x148c <__vector_1>
       8:	0c 94 57 0a 	jmp	0x14ae	; 0x14ae <__vector_2>
       c:	0c 94 4e 00 	jmp	0x9c	; 0x9c <__bad_interrupt>
      10:	0c 94 85 06 	jmp	0xd0a	; 0xd0a <__vector_4>
      14:	0c 94 4e 00 	jmp	0x9c	; 0x9c <__bad_interrupt>
      18:	0c 94 4e 00 	jmp	0x9c	; 0x9c <__bad_interrupt>
      1c:	0c 94 4e 00 	jmp	0x9c	; 0x9c <__bad_interrupt>
      20:	0c 94 4e 00 	jmp	0x9c	; 0x9c <__bad_interrupt>
      24:	0c 94 4e 00 	jmp	0x9c	; 0x9c <__bad_interrupt>
      28:	0c 94 68 0a 	jmp	0x14d0	; 0x14d0 <__vector_10>
      2c:	0c 94 4e 00 	jmp	0x9c	; 0x9c <__bad_interrupt>
      30:	0c 94 4e 00 	jmp	0x9c	; 0x9c <__bad_interrupt>
      34:	0c 94 f9 00 	jmp	0x1f2	; 0x1f2 <__vector_13>
      38:	0c 94 4e 00 	jmp	0x9c	; 0x9c <__bad_interrupt>
      3c:	0c 94 4e 00 	jmp	0x9c	; 0x9c <__bad_interrupt>
      40:	0c 94 4e 00 	jmp	0x9c	; 0x9c <__bad_interrupt>
      44:	0c 94 4e 00 	jmp	0x9c	; 0x9c <__bad_interrupt>
      48:	0c 94 4e 00 	jmp	0x9c	; 0x9c <__bad_interrupt>
      4c:	0c 94 4e 00 	jmp	0x9c	; 0x9c <__bad_interrupt>
      50:	0c 94 4e 00 	jmp	0x9c	; 0x9c <__bad_interrupt>
      54:	a9 05       	cpc	r26, r9
      56:	b6 05       	cpc	r27, r6
      58:	c4 05       	cpc	r28, r4
      5a:	d2 05       	cpc	r29, r2
      5c:	e0 05       	cpc	r30, r0
      5e:	ee 05       	cpc	r30, r14
      60:	fc 05       	cpc	r31, r12

00000062 <__ctors_end>:
      62:	11 24       	eor	r1, r1
      64:	1f be       	out	0x3f, r1	; 63
      66:	cf e5       	ldi	r28, 0x5F	; 95
      68:	d8 e0       	ldi	r29, 0x08	; 8
      6a:	de bf       	out	0x3e, r29	; 62
      6c:	cd bf       	out	0x3d, r28	; 61

0000006e <__do_copy_data>:
      6e:	10 e0       	ldi	r17, 0x00	; 0
      70:	a0 e6       	ldi	r26, 0x60	; 96
      72:	b0 e0       	ldi	r27, 0x00	; 0
      74:	e0 ea       	ldi	r30, 0xA0	; 160
      76:	ff e1       	ldi	r31, 0x1F	; 31
      78:	02 c0       	rjmp	.+4      	; 0x7e <__do_copy_data+0x10>
      7a:	05 90       	lpm	r0, Z+
      7c:	0d 92       	st	X+, r0
      7e:	a4 3f       	cpi	r26, 0xF4	; 244
      80:	b1 07       	cpc	r27, r17
      82:	d9 f7       	brne	.-10     	; 0x7a <__do_copy_data+0xc>

00000084 <__do_clear_bss>:
      84:	21 e0       	ldi	r18, 0x01	; 1
      86:	a4 ef       	ldi	r26, 0xF4	; 244
      88:	b0 e0       	ldi	r27, 0x00	; 0
      8a:	01 c0       	rjmp	.+2      	; 0x8e <.do_clear_bss_start>

0000008c <.do_clear_bss_loop>:
      8c:	1d 92       	st	X+, r1

0000008e <.do_clear_bss_start>:
      8e:	a0 34       	cpi	r26, 0x40	; 64
      90:	b2 07       	cpc	r27, r18
      92:	e1 f7       	brne	.-8      	; 0x8c <.do_clear_bss_loop>
      94:	0e 94 1b 08 	call	0x1036	; 0x1036 <main>
      98:	0c 94 ce 0f 	jmp	0x1f9c	; 0x1f9c <_exit>

0000009c <__bad_interrupt>:
      9c:	0c 94 00 00 	jmp	0	; 0x0 <__vectors>

000000a0 <AdcConvert>:
// Input: channel number, 0..7
// Return: 10 bit result, 0..1023 
/******************************************************************************/
uint16_t AdcConvert (uint8_t channel)
{
	ADMUX = (1<<REFS0) | channel; // use AVcc+ ref with capacitor, select channel
      a0:	80 64       	ori	r24, 0x40	; 64
      a2:	87 b9       	out	0x07, r24	; 7
   
	ADCSRA |= (1<<ADSC);
      a4:	36 9a       	sbi	0x06, 6	; 6
   
	while (ADCSRA & (1<<ADSC))
      a6:	36 99       	sbic	0x06, 6	; 6
      a8:	fe cf       	rjmp	.-4      	; 0xa6 <AdcConvert+0x6>
	{
		// Waiting for conversion complete
	};    
   
   return ADC; // Return 16 bit ADC value
      aa:	84 b1       	in	r24, 0x04	; 4
      ac:	95 b1       	in	r25, 0x05	; 5
}
      ae:	08 95       	ret

000000b0 <AdcInit>:
// Input: 
// Return: 
/******************************************************************************/
void AdcInit (void)
{
   ADCSRA = 0x87;                   // enable ADC, clear EOC-flag, set clock div.
      b0:	87 e8       	ldi	r24, 0x87	; 135
      b2:	86 b9       	out	0x06, r24	; 6
   ADCSRA |= _BV(ADEN); 
      b4:	37 9a       	sbi	0x06, 7	; 6
      b6:	08 95       	ret

000000b8 <driveArcOnAxis>:

uint8_t calculateTurnWheelSpeed(uint8_t distance, uint8_t degree);
bool hasMotorTravelledRequiredDistance(uint8_t currentLeft, uint8_t targetLeft);

void driveArcOnAxis(uint8_t distance, uint8_t direction, uint8_t speed)
{
      b8:	1f 93       	push	r17
      ba:	cf 93       	push	r28
      bc:	df 93       	push	r29
      be:	d8 2f       	mov	r29, r24
      c0:	16 2f       	mov	r17, r22
      c2:	c4 2f       	mov	r28, r20
	uint8_t targetTravelled = distance;

	uint8_t outsideWheelSpeed = speed;
	uint8_t insideWheelSpeed = 60;

	if (direction == DIRECTION_ARC_LEFT)
      c4:	61 11       	cpse	r22, r1
      c6:	10 c0       	rjmp	.+32     	; 0xe8 <driveArcOnAxis+0x30>
	{
		setDirectionMotorL(MOTOR_REVERSE);
      c8:	81 e0       	ldi	r24, 0x01	; 1
      ca:	0e 94 88 08 	call	0x1110	; 0x1110 <setDirectionMotorL>
		setDirectionMotorR(MOTOR_FORWARD);
      ce:	80 e0       	ldi	r24, 0x00	; 0
      d0:	0e 94 94 08 	call	0x1128	; 0x1128 <setDirectionMotorR>
		setDutyCycleMotorL(insideWheelSpeed);
      d4:	8c e3       	ldi	r24, 0x3C	; 60
      d6:	90 e0       	ldi	r25, 0x00	; 0
      d8:	0e 94 7c 08 	call	0x10f8	; 0x10f8 <setDutyCycleMotorL>
		setDutyCycleMotorR(outsideWheelSpeed);
      dc:	8c 2f       	mov	r24, r28
      de:	90 e0       	ldi	r25, 0x00	; 0
      e0:	0e 94 82 08 	call	0x1104	; 0x1104 <setDutyCycleMotorR>

uint8_t calculateTurnWheelSpeed(uint8_t distance, uint8_t degree);
bool hasMotorTravelledRequiredDistance(uint8_t currentLeft, uint8_t targetLeft);

void driveArcOnAxis(uint8_t distance, uint8_t direction, uint8_t speed)
{
      e4:	c0 e0       	ldi	r28, 0x00	; 0
      e6:	22 c0       	rjmp	.+68     	; 0x12c <driveArcOnAxis+0x74>
		setDirectionMotorL(MOTOR_REVERSE);
		setDirectionMotorR(MOTOR_FORWARD);
		setDutyCycleMotorL(insideWheelSpeed);
		setDutyCycleMotorR(outsideWheelSpeed);
	}
	else if (direction == DIRECTION_ARC_RIGHT)
      e8:	61 30       	cpi	r22, 0x01	; 1
      ea:	e1 f7       	brne	.-8      	; 0xe4 <driveArcOnAxis+0x2c>
	{
		setDirectionMotorL(MOTOR_FORWARD);
      ec:	80 e0       	ldi	r24, 0x00	; 0
      ee:	0e 94 88 08 	call	0x1110	; 0x1110 <setDirectionMotorL>
		setDirectionMotorR(MOTOR_REVERSE);
      f2:	81 e0       	ldi	r24, 0x01	; 1
      f4:	0e 94 94 08 	call	0x1128	; 0x1128 <setDirectionMotorR>
		setDutyCycleMotorL(outsideWheelSpeed);
      f8:	8c 2f       	mov	r24, r28
      fa:	90 e0       	ldi	r25, 0x00	; 0
      fc:	0e 94 7c 08 	call	0x10f8	; 0x10f8 <setDutyCycleMotorL>
		setDutyCycleMotorR(insideWheelSpeed);
     100:	8c e3       	ldi	r24, 0x3C	; 60
     102:	90 e0       	ldi	r25, 0x00	; 0
     104:	0e 94 82 08 	call	0x1104	; 0x1104 <setDutyCycleMotorR>
     108:	ed cf       	rjmp	.-38     	; 0xe4 <driveArcOnAxis+0x2c>
	}

	while (hasMotorTravelledRequiredDistance(currentTravelled, targetTravelled) == false)
	{
		if (!getSensorUpdateFlag())
     10a:	0e 94 6c 08 	call	0x10d8	; 0x10d8 <getSensorUpdateFlag>
     10e:	88 23       	and	r24, r24
     110:	69 f0       	breq	.+26     	; 0x12c <driveArcOnAxis+0x74>
		{
			continue;
		}
		
		if (direction == DIRECTION_ARC_LEFT)
     112:	11 11       	cpse	r17, r1
     114:	04 c0       	rjmp	.+8      	; 0x11e <driveArcOnAxis+0x66>
		{
			currentTravelled += getSensorMotorR();
     116:	0e 94 a3 08 	call	0x1146	; 0x1146 <getSensorMotorR>
     11a:	c8 0f       	add	r28, r24
     11c:	05 c0       	rjmp	.+10     	; 0x128 <driveArcOnAxis+0x70>
		}
		else if (direction == DIRECTION_ARC_RIGHT)
     11e:	11 30       	cpi	r17, 0x01	; 1
     120:	39 f4       	brne	.+14     	; 0x130 <driveArcOnAxis+0x78>
		{
			currentTravelled += getSensorMotorL();
     122:	0e 94 a0 08 	call	0x1140	; 0x1140 <getSensorMotorL>
     126:	c8 0f       	add	r28, r24
		else
		{
			return;
		}

		clearSensorUpdateFlag();
     128:	0e 94 6f 08 	call	0x10de	; 0x10de <clearSensorUpdateFlag>
		setDirectionMotorR(MOTOR_REVERSE);
		setDutyCycleMotorL(outsideWheelSpeed);
		setDutyCycleMotorR(insideWheelSpeed);
	}

	while (hasMotorTravelledRequiredDistance(currentTravelled, targetTravelled) == false)
     12c:	cd 17       	cp	r28, r29
     12e:	68 f3       	brcs	.-38     	; 0x10a <driveArcOnAxis+0x52>
			return;
		}

		clearSensorUpdateFlag();
	}
}
     130:	df 91       	pop	r29
     132:	cf 91       	pop	r28
     134:	1f 91       	pop	r17
     136:	08 95       	ret

00000138 <driveArc>:
 * speed:		speed of movement (0 -> 250)
 * degree:		sharpness of arc (0 [straight line] -> 90 [sharpest turn])
 */

void driveArc(uint8_t distance, uint8_t direction, uint8_t speed, uint8_t degree)
{
     138:	cf 92       	push	r12
     13a:	df 92       	push	r13
     13c:	ef 92       	push	r14
     13e:	ff 92       	push	r15
     140:	1f 93       	push	r17
     142:	cf 93       	push	r28
     144:	df 93       	push	r29
	if (degree > 90 || degree < 0)
     146:	2b 35       	cpi	r18, 0x5B	; 91
     148:	08 f0       	brcs	.+2      	; 0x14c <driveArc+0x14>
     14a:	42 c0       	rjmp	.+132    	; 0x1d0 <driveArc+0x98>
     14c:	d6 2f       	mov	r29, r22
     14e:	18 2f       	mov	r17, r24
	}
}

uint8_t calculateTurnWheelSpeed(uint8_t speed, uint8_t degree)
{
	uint8_t result = speed*(90-degree)/90;
     150:	e4 2e       	mov	r14, r20
     152:	f1 2c       	mov	r15, r1
     154:	6a e5       	ldi	r22, 0x5A	; 90
     156:	70 e0       	ldi	r23, 0x00	; 0
     158:	cb 01       	movw	r24, r22
     15a:	82 1b       	sub	r24, r18
     15c:	91 09       	sbc	r25, r1
     15e:	9c 01       	movw	r18, r24
     160:	e2 9e       	mul	r14, r18
     162:	c0 01       	movw	r24, r0
     164:	e3 9e       	mul	r14, r19
     166:	90 0d       	add	r25, r0
     168:	f2 9e       	mul	r15, r18
     16a:	90 0d       	add	r25, r0
     16c:	11 24       	eor	r1, r1
     16e:	0e 94 c8 0c 	call	0x1990	; 0x1990 <__divmodhi4>
     172:	6b 01       	movw	r12, r22
	uint8_t targetTravelled = distance;

	uint8_t outsideWheelSpeed = speed;
	uint8_t insideWheelSpeed = calculateTurnWheelSpeed(speed, degree);

	setDirectionMotorL(MOTOR_FORWARD);
     174:	80 e0       	ldi	r24, 0x00	; 0
     176:	0e 94 88 08 	call	0x1110	; 0x1110 <setDirectionMotorL>
	setDirectionMotorR(MOTOR_FORWARD);
     17a:	80 e0       	ldi	r24, 0x00	; 0
     17c:	0e 94 94 08 	call	0x1128	; 0x1128 <setDirectionMotorR>

	if (direction == DIRECTION_ARC_LEFT)
     180:	d1 11       	cpse	r29, r1
     182:	09 c0       	rjmp	.+18     	; 0x196 <driveArc+0x5e>
	{	
		setDutyCycleMotorL(insideWheelSpeed);
     184:	c6 01       	movw	r24, r12
     186:	99 27       	eor	r25, r25
     188:	0e 94 7c 08 	call	0x10f8	; 0x10f8 <setDutyCycleMotorL>
		setDutyCycleMotorR(outsideWheelSpeed);
     18c:	c7 01       	movw	r24, r14
     18e:	0e 94 82 08 	call	0x1104	; 0x1104 <setDutyCycleMotorR>
 * speed:		speed of movement (0 -> 250)
 * degree:		sharpness of arc (0 [straight line] -> 90 [sharpest turn])
 */

void driveArc(uint8_t distance, uint8_t direction, uint8_t speed, uint8_t degree)
{
     192:	c0 e0       	ldi	r28, 0x00	; 0
     194:	1b c0       	rjmp	.+54     	; 0x1cc <driveArc+0x94>
	{	
		setDutyCycleMotorL(insideWheelSpeed);
		setDutyCycleMotorR(outsideWheelSpeed);
	}

	else if (direction == DIRECTION_ARC_RIGHT)
     196:	d1 30       	cpi	r29, 0x01	; 1
     198:	d9 f4       	brne	.+54     	; 0x1d0 <driveArc+0x98>
	{	
		setDutyCycleMotorL(outsideWheelSpeed);
     19a:	c7 01       	movw	r24, r14
     19c:	0e 94 7c 08 	call	0x10f8	; 0x10f8 <setDutyCycleMotorL>
		setDutyCycleMotorR(insideWheelSpeed);
     1a0:	c6 01       	movw	r24, r12
     1a2:	99 27       	eor	r25, r25
     1a4:	0e 94 82 08 	call	0x1104	; 0x1104 <setDutyCycleMotorR>
     1a8:	f4 cf       	rjmp	.-24     	; 0x192 <driveArc+0x5a>
		return;
	}

	while (hasMotorTravelledRequiredDistance(currentTravelled, targetTravelled) == false)
	{
		if (!getSensorUpdateFlag())
     1aa:	0e 94 6c 08 	call	0x10d8	; 0x10d8 <getSensorUpdateFlag>
     1ae:	88 23       	and	r24, r24
     1b0:	69 f0       	breq	.+26     	; 0x1cc <driveArc+0x94>
		{
			continue;
		}
		
		if (direction == DIRECTION_ARC_LEFT)
     1b2:	d1 11       	cpse	r29, r1
     1b4:	04 c0       	rjmp	.+8      	; 0x1be <driveArc+0x86>
		{
			currentTravelled += getSensorMotorR();
     1b6:	0e 94 a3 08 	call	0x1146	; 0x1146 <getSensorMotorR>
     1ba:	c8 0f       	add	r28, r24
     1bc:	05 c0       	rjmp	.+10     	; 0x1c8 <driveArc+0x90>
		}
		else if (direction == DIRECTION_ARC_RIGHT)
     1be:	d1 30       	cpi	r29, 0x01	; 1
     1c0:	39 f4       	brne	.+14     	; 0x1d0 <driveArc+0x98>
		{
			currentTravelled += getSensorMotorL();
     1c2:	0e 94 a0 08 	call	0x1140	; 0x1140 <getSensorMotorL>
     1c6:	c8 0f       	add	r28, r24
		else
		{
			return;
		}

		clearSensorUpdateFlag();
     1c8:	0e 94 6f 08 	call	0x10de	; 0x10de <clearSensorUpdateFlag>
	{
		// Invalid directional input.
		return;
	}

	while (hasMotorTravelledRequiredDistance(currentTravelled, targetTravelled) == false)
     1cc:	c1 17       	cp	r28, r17
     1ce:	68 f3       	brcs	.-38     	; 0x1aa <driveArc+0x72>
			return;
		}

		clearSensorUpdateFlag();
	}
}
     1d0:	df 91       	pop	r29
     1d2:	cf 91       	pop	r28
     1d4:	1f 91       	pop	r17
     1d6:	ff 90       	pop	r15
     1d8:	ef 90       	pop	r14
     1da:	df 90       	pop	r13
     1dc:	cf 90       	pop	r12
     1de:	08 95       	ret

000001e0 <USARTInit>:
/////////////////////////////////////////////////////////////

void USARTInit(uint16_t ubrr_value)
{
   //Set Baud rate
   UBRRL = ubrr_value;
     1e0:	89 b9       	out	0x09, r24	; 9
   UBRRH = (ubrr_value>>8);
     1e2:	90 bd       	out	0x20, r25	; 32

   //Don't remember what this does
   UCSRC=(1<<URSEL)|(3<<UCSZ0);
     1e4:	86 e8       	ldi	r24, 0x86	; 134
     1e6:	80 bd       	out	0x20, r24	; 32

   //Enable The receiver and transmitter
   UCSRB=(1<<RXEN)|(1<<TXEN);
     1e8:	88 e1       	ldi	r24, 0x18	; 24
     1ea:	8a b9       	out	0x0a, r24	; 10

   //Enable the USART Recieve Complete interrupt (USART_RXC) 
   UCSRB |= (1 << RXCIE); 
     1ec:	57 9a       	sbi	0x0a, 7	; 10

   //Enable the Global Interrupt Enable flag so that interrupts can be processed 
   sei(); 
     1ee:	78 94       	sei
     1f0:	08 95       	ret

000001f2 <__vector_13>:
////          Interrupt Service  Rutine                  ////
////           Received Bluetooth Data                   ////
/////////////////////////////////////////////////////////////

ISR(USART_RXC_vect)
	{
     1f2:	1f 92       	push	r1
     1f4:	0f 92       	push	r0
     1f6:	0f b6       	in	r0, 0x3f	; 63
     1f8:	0f 92       	push	r0
     1fa:	11 24       	eor	r1, r1
     1fc:	8f 93       	push	r24
	// Fetch the received byte value into the variable " ByteReceived "
	ReceivedByte = UDR;
     1fe:	8c b1       	in	r24, 0x0c	; 12
     200:	80 93 23 01 	sts	0x0123, r24
	//UDR = ReceivedByte;
	//UDR = 13;
	}
     204:	8f 91       	pop	r24
     206:	0f 90       	pop	r0
     208:	0f be       	out	0x3f, r0	; 63
     20a:	0f 90       	pop	r0
     20c:	1f 90       	pop	r1
     20e:	18 95       	reti

00000210 <getRunLineFlag>:
#define centralButton '4'
#define noButton '5'

bool getRunLineFlag(){
	return runLineFlag;
}
     210:	80 91 f5 00 	lds	r24, 0x00F5
     214:	08 95       	ret

00000216 <setRunLineFlag>:
bool getRunWallFlag(){
	return runWallFlag;
}

void setRunLineFlag(bool value){
	runLineFlag = value;
     216:	80 93 f5 00 	sts	0x00F5, r24
     21a:	08 95       	ret

0000021c <ADCReadButton>:
// Input:
// Return: char
/******************************************************************************/
char ADCReadButton(void)
{
	uint16_t keyboardVoltage = (int16_t)AdcConvert(0);	// get ADC value from channel ADC0
     21c:	80 e0       	ldi	r24, 0x00	; 0
     21e:	0e 94 50 00 	call	0xa0	; 0xa0 <AdcConvert>
	const int maxUpButtonVoltage = 300;
	const int maxDownButtonVoltage = 500;
	const int maxLeftButtonVoltage = 700;
	const int maxCentralButtonVoltage = 900;
	
	if (keyboardVoltage < maxRightButtonVoltage)
     222:	84 36       	cpi	r24, 0x64	; 100
     224:	91 05       	cpc	r25, r1
     226:	88 f0       	brcs	.+34     	; 0x24a <ADCReadButton+0x2e>
	{
		return rightButton;
	}
	else if (keyboardVoltage < maxUpButtonVoltage)
     228:	8c 32       	cpi	r24, 0x2C	; 44
     22a:	21 e0       	ldi	r18, 0x01	; 1
     22c:	92 07       	cpc	r25, r18
     22e:	78 f0       	brcs	.+30     	; 0x24e <ADCReadButton+0x32>
	{
		return upButton;
	}
	else if (keyboardVoltage < maxDownButtonVoltage)
     230:	84 3f       	cpi	r24, 0xF4	; 244
     232:	21 e0       	ldi	r18, 0x01	; 1
     234:	92 07       	cpc	r25, r18
     236:	68 f0       	brcs	.+26     	; 0x252 <ADCReadButton+0x36>
	{
		return downButton;
	}
	else if (keyboardVoltage < maxLeftButtonVoltage)
     238:	8c 3b       	cpi	r24, 0xBC	; 188
     23a:	22 e0       	ldi	r18, 0x02	; 2
     23c:	92 07       	cpc	r25, r18
     23e:	58 f0       	brcs	.+22     	; 0x256 <ADCReadButton+0x3a>
	{
		return leftButton;
	}
	else if (keyboardVoltage < maxCentralButtonVoltage)
     240:	84 38       	cpi	r24, 0x84	; 132
     242:	93 40       	sbci	r25, 0x03	; 3
     244:	50 f0       	brcs	.+20     	; 0x25a <ADCReadButton+0x3e>
	{
		return centralButton;
	}
	else
	{
		return noButton;
     246:	85 e3       	ldi	r24, 0x35	; 53
     248:	08 95       	ret
	const int maxLeftButtonVoltage = 700;
	const int maxCentralButtonVoltage = 900;
	
	if (keyboardVoltage < maxRightButtonVoltage)
	{
		return rightButton;
     24a:	80 e3       	ldi	r24, 0x30	; 48
     24c:	08 95       	ret
	}
	else if (keyboardVoltage < maxUpButtonVoltage)
	{
		return upButton;
     24e:	81 e3       	ldi	r24, 0x31	; 49
     250:	08 95       	ret
	}
	else if (keyboardVoltage < maxDownButtonVoltage)
	{
		return downButton;
     252:	82 e3       	ldi	r24, 0x32	; 50
     254:	08 95       	ret
	}
	else if (keyboardVoltage < maxLeftButtonVoltage)
	{
		return leftButton;
     256:	83 e3       	ldi	r24, 0x33	; 51
     258:	08 95       	ret
	}
	else if (keyboardVoltage < maxCentralButtonVoltage)
	{
		return centralButton;
     25a:	84 e3       	ldi	r24, 0x34	; 52
	}
	else
	{
		return noButton;
	}
}
     25c:	08 95       	ret

0000025e <getButton>:
char getButton(void)
{
	static char last = noButton;
	char temp, now;

	now = ADCReadButton();          // read the present input
     25e:	0e 94 0e 01 	call	0x21c	; 0x21c <ADCReadButton>
     262:	98 2f       	mov	r25, r24
	if (now == last)                // test for two subsequent equal inputs
     264:	80 91 60 00 	lds	r24, 0x0060
     268:	98 13       	cpse	r25, r24
		return now;
	}
	else
	{
		temp = last;                 // if new: store new and return the last stable
		last = now;
     26a:	90 93 60 00 	sts	0x0060, r25
		return temp;
	}
}
     26e:	08 95       	ret

00000270 <buttonReleased>:
		return false;
	}
}
bool buttonReleased(void)
{
	char button = getButton();
     270:	0e 94 2f 01 	call	0x25e	; 0x25e <getButton>
	if(button==noButton)
     274:	91 e0       	ldi	r25, 0x01	; 1
     276:	85 33       	cpi	r24, 0x35	; 53
     278:	09 f0       	breq	.+2      	; 0x27c <buttonReleased+0xc>
     27a:	90 e0       	ldi	r25, 0x00	; 0
	}
	else
	{
		return false;
	}
}
     27c:	89 2f       	mov	r24, r25
     27e:	08 95       	ret

00000280 <LcdTask>:
	}
}

void LcdTask (void)
{
	LCDClear();
     280:	0e 94 28 04 	call	0x850	; 0x850 <LCDClear>
	LCDGotoXY(0,0);
     284:	60 e0       	ldi	r22, 0x00	; 0
     286:	80 e0       	ldi	r24, 0x00	; 0
     288:	0e 94 3f 04 	call	0x87e	; 0x87e <LCDGotoXY>
	LCDPutString(menuStr1);
     28c:	82 e3       	ldi	r24, 0x32	; 50
     28e:	91 e0       	ldi	r25, 0x01	; 1
     290:	0e 94 7f 04 	call	0x8fe	; 0x8fe <LCDPutString>
	LCDGotoXY(0,1);
     294:	61 e0       	ldi	r22, 0x01	; 1
     296:	80 e0       	ldi	r24, 0x00	; 0
     298:	0e 94 3f 04 	call	0x87e	; 0x87e <LCDGotoXY>
	LCDPutString(menuStr2);
     29c:	84 e2       	ldi	r24, 0x24	; 36
     29e:	91 e0       	ldi	r25, 0x01	; 1
     2a0:	0e 94 7f 04 	call	0x8fe	; 0x8fe <LCDPutString>
	LCDGotoXY(15,0);
     2a4:	60 e0       	ldi	r22, 0x00	; 0
     2a6:	8f e0       	ldi	r24, 0x0F	; 15
     2a8:	0e 94 3f 04 	call	0x87e	; 0x87e <LCDGotoXY>
	LCDPutChar(1);	// display the up arrow
     2ac:	81 e0       	ldi	r24, 0x01	; 1
     2ae:	0e 94 57 04 	call	0x8ae	; 0x8ae <LCDPutChar>
	LCDGotoXY(15,1);
     2b2:	61 e0       	ldi	r22, 0x01	; 1
     2b4:	8f e0       	ldi	r24, 0x0F	; 15
     2b6:	0e 94 3f 04 	call	0x87e	; 0x87e <LCDGotoXY>
	LCDPutChar(0);	// display the down arrow
     2ba:	80 e0       	ldi	r24, 0x00	; 0
     2bc:	0e 94 57 04 	call	0x8ae	; 0x8ae <LCDPutChar>
     2c0:	08 95       	ret

000002c2 <subMenuRight>:
		return false;
	}
}

void subMenuRight(void)
{
     2c2:	0f 93       	push	r16
     2c4:	1f 93       	push	r17
     2c6:	cf 93       	push	r28
     2c8:	df 93       	push	r29
	char subButton = getButton();
     2ca:	0e 94 2f 01 	call	0x25e	; 0x25e <getButton>
     2ce:	c8 2f       	mov	r28, r24
	
	sprintf(menuStr1, "Adjust kp");
     2d0:	9a e0       	ldi	r25, 0x0A	; 10
     2d2:	e6 e8       	ldi	r30, 0x86	; 134
     2d4:	f0 e0       	ldi	r31, 0x00	; 0
     2d6:	a2 e3       	ldi	r26, 0x32	; 50
     2d8:	b1 e0       	ldi	r27, 0x01	; 1
     2da:	01 90       	ld	r0, Z+
     2dc:	0d 92       	st	X+, r0
     2de:	9a 95       	dec	r25
     2e0:	e1 f7       	brne	.-8      	; 0x2da <subMenuRight+0x18>
	sprintf(menuStr2,"kp = %03d", kp);
     2e2:	80 91 62 00 	lds	r24, 0x0062
     2e6:	1f 92       	push	r1
     2e8:	8f 93       	push	r24
     2ea:	20 e9       	ldi	r18, 0x90	; 144
     2ec:	30 e0       	ldi	r19, 0x00	; 0
     2ee:	3f 93       	push	r19
     2f0:	2f 93       	push	r18
     2f2:	24 e2       	ldi	r18, 0x24	; 36
     2f4:	31 e0       	ldi	r19, 0x01	; 1
     2f6:	3f 93       	push	r19
     2f8:	2f 93       	push	r18
     2fa:	0e 94 f6 0c 	call	0x19ec	; 0x19ec <sprintf>
	
	LcdTask();
     2fe:	0e 94 40 01 	call	0x280	; 0x280 <LcdTask>
	while(subButton!= centralButton)
     302:	0f 90       	pop	r0
     304:	0f 90       	pop	r0
     306:	0f 90       	pop	r0
     308:	0f 90       	pop	r0
     30a:	0f 90       	pop	r0
     30c:	0f 90       	pop	r0
     30e:	c4 33       	cpi	r28, 0x34	; 52
     310:	09 f4       	brne	.+2      	; 0x314 <subMenuRight+0x52>
     312:	40 c0       	rjmp	.+128    	; 0x394 <subMenuRight+0xd2>
		subButton = getButton();
		if(subButton == upButton)
		{
			while(!buttonReleased());
			kp+=1;
			sprintf(menuStr2,"kp = %03d", kp);
     314:	00 e9       	ldi	r16, 0x90	; 144
     316:	10 e0       	ldi	r17, 0x00	; 0
     318:	c4 e2       	ldi	r28, 0x24	; 36
     31a:	d1 e0       	ldi	r29, 0x01	; 1
	sprintf(menuStr2,"kp = %03d", kp);
	
	LcdTask();
	while(subButton!= centralButton)
	{
		subButton = getButton();
     31c:	0e 94 2f 01 	call	0x25e	; 0x25e <getButton>
		if(subButton == upButton)
     320:	81 33       	cpi	r24, 0x31	; 49
     322:	d1 f4       	brne	.+52     	; 0x358 <subMenuRight+0x96>
		{
			while(!buttonReleased());
     324:	0e 94 38 01 	call	0x270	; 0x270 <buttonReleased>
     328:	88 23       	and	r24, r24
     32a:	e1 f3       	breq	.-8      	; 0x324 <subMenuRight+0x62>
			kp+=1;
     32c:	80 91 62 00 	lds	r24, 0x0062
     330:	8f 5f       	subi	r24, 0xFF	; 255
     332:	80 93 62 00 	sts	0x0062, r24
			sprintf(menuStr2,"kp = %03d", kp);
     336:	1f 92       	push	r1
     338:	8f 93       	push	r24
     33a:	1f 93       	push	r17
     33c:	0f 93       	push	r16
     33e:	df 93       	push	r29
     340:	cf 93       	push	r28
     342:	0e 94 f6 0c 	call	0x19ec	; 0x19ec <sprintf>
			LcdTask();
     346:	0e 94 40 01 	call	0x280	; 0x280 <LcdTask>
     34a:	0f 90       	pop	r0
     34c:	0f 90       	pop	r0
     34e:	0f 90       	pop	r0
     350:	0f 90       	pop	r0
     352:	0f 90       	pop	r0
     354:	0f 90       	pop	r0
     356:	e2 cf       	rjmp	.-60     	; 0x31c <subMenuRight+0x5a>
		}
		else if(subButton == downButton)
     358:	82 33       	cpi	r24, 0x32	; 50
     35a:	d1 f4       	brne	.+52     	; 0x390 <subMenuRight+0xce>
		{
			while(!buttonReleased());
     35c:	0e 94 38 01 	call	0x270	; 0x270 <buttonReleased>
     360:	88 23       	and	r24, r24
     362:	e1 f3       	breq	.-8      	; 0x35c <subMenuRight+0x9a>
			kp-=1;
     364:	80 91 62 00 	lds	r24, 0x0062
     368:	81 50       	subi	r24, 0x01	; 1
     36a:	80 93 62 00 	sts	0x0062, r24
			sprintf(menuStr2,"kp = %03d", kp);
     36e:	1f 92       	push	r1
     370:	8f 93       	push	r24
     372:	1f 93       	push	r17
     374:	0f 93       	push	r16
     376:	df 93       	push	r29
     378:	cf 93       	push	r28
     37a:	0e 94 f6 0c 	call	0x19ec	; 0x19ec <sprintf>
			LcdTask();
     37e:	0e 94 40 01 	call	0x280	; 0x280 <LcdTask>
     382:	0f 90       	pop	r0
     384:	0f 90       	pop	r0
     386:	0f 90       	pop	r0
     388:	0f 90       	pop	r0
     38a:	0f 90       	pop	r0
     38c:	0f 90       	pop	r0
     38e:	c6 cf       	rjmp	.-116    	; 0x31c <subMenuRight+0x5a>
	
	sprintf(menuStr1, "Adjust kp");
	sprintf(menuStr2,"kp = %03d", kp);
	
	LcdTask();
	while(subButton!= centralButton)
     390:	84 33       	cpi	r24, 0x34	; 52
     392:	21 f6       	brne	.-120    	; 0x31c <subMenuRight+0x5a>
			kp-=1;
			sprintf(menuStr2,"kp = %03d", kp);
			LcdTask();
		}
	}
}
     394:	df 91       	pop	r29
     396:	cf 91       	pop	r28
     398:	1f 91       	pop	r17
     39a:	0f 91       	pop	r16
     39c:	08 95       	ret

0000039e <subMenuLeft>:
void subMenuLeft(void)
{
     39e:	0f 93       	push	r16
     3a0:	1f 93       	push	r17
     3a2:	cf 93       	push	r28
     3a4:	df 93       	push	r29
	char subButton = getButton();
     3a6:	0e 94 2f 01 	call	0x25e	; 0x25e <getButton>
     3aa:	c8 2f       	mov	r28, r24
	sprintf(menuStr1, "Adjust ki");
     3ac:	9a e0       	ldi	r25, 0x0A	; 10
     3ae:	ea e9       	ldi	r30, 0x9A	; 154
     3b0:	f0 e0       	ldi	r31, 0x00	; 0
     3b2:	a2 e3       	ldi	r26, 0x32	; 50
     3b4:	b1 e0       	ldi	r27, 0x01	; 1
     3b6:	01 90       	ld	r0, Z+
     3b8:	0d 92       	st	X+, r0
     3ba:	9a 95       	dec	r25
     3bc:	e1 f7       	brne	.-8      	; 0x3b6 <subMenuLeft+0x18>
	sprintf(menuStr2,"ki = %03d", ki);
     3be:	80 91 61 00 	lds	r24, 0x0061
     3c2:	1f 92       	push	r1
     3c4:	8f 93       	push	r24
     3c6:	24 ea       	ldi	r18, 0xA4	; 164
     3c8:	30 e0       	ldi	r19, 0x00	; 0
     3ca:	3f 93       	push	r19
     3cc:	2f 93       	push	r18
     3ce:	24 e2       	ldi	r18, 0x24	; 36
     3d0:	31 e0       	ldi	r19, 0x01	; 1
     3d2:	3f 93       	push	r19
     3d4:	2f 93       	push	r18
     3d6:	0e 94 f6 0c 	call	0x19ec	; 0x19ec <sprintf>
	LcdTask();
     3da:	0e 94 40 01 	call	0x280	; 0x280 <LcdTask>
	while(subButton!=centralButton)
     3de:	0f 90       	pop	r0
     3e0:	0f 90       	pop	r0
     3e2:	0f 90       	pop	r0
     3e4:	0f 90       	pop	r0
     3e6:	0f 90       	pop	r0
     3e8:	0f 90       	pop	r0
     3ea:	c4 33       	cpi	r28, 0x34	; 52
     3ec:	09 f4       	brne	.+2      	; 0x3f0 <subMenuLeft+0x52>
     3ee:	40 c0       	rjmp	.+128    	; 0x470 <subMenuLeft+0xd2>
		subButton=getButton();
		if(subButton == upButton)
		{
			while(!buttonReleased());
			ki+=1;
			sprintf(menuStr2,"ki = %03d", ki);
     3f0:	04 ea       	ldi	r16, 0xA4	; 164
     3f2:	10 e0       	ldi	r17, 0x00	; 0
     3f4:	c4 e2       	ldi	r28, 0x24	; 36
     3f6:	d1 e0       	ldi	r29, 0x01	; 1
	sprintf(menuStr1, "Adjust ki");
	sprintf(menuStr2,"ki = %03d", ki);
	LcdTask();
	while(subButton!=centralButton)
	{
		subButton=getButton();
     3f8:	0e 94 2f 01 	call	0x25e	; 0x25e <getButton>
		if(subButton == upButton)
     3fc:	81 33       	cpi	r24, 0x31	; 49
     3fe:	d1 f4       	brne	.+52     	; 0x434 <subMenuLeft+0x96>
		{
			while(!buttonReleased());
     400:	0e 94 38 01 	call	0x270	; 0x270 <buttonReleased>
     404:	88 23       	and	r24, r24
     406:	e1 f3       	breq	.-8      	; 0x400 <subMenuLeft+0x62>
			ki+=1;
     408:	80 91 61 00 	lds	r24, 0x0061
     40c:	8f 5f       	subi	r24, 0xFF	; 255
     40e:	80 93 61 00 	sts	0x0061, r24
			sprintf(menuStr2,"ki = %03d", ki);
     412:	1f 92       	push	r1
     414:	8f 93       	push	r24
     416:	1f 93       	push	r17
     418:	0f 93       	push	r16
     41a:	df 93       	push	r29
     41c:	cf 93       	push	r28
     41e:	0e 94 f6 0c 	call	0x19ec	; 0x19ec <sprintf>
			LcdTask();
     422:	0e 94 40 01 	call	0x280	; 0x280 <LcdTask>
     426:	0f 90       	pop	r0
     428:	0f 90       	pop	r0
     42a:	0f 90       	pop	r0
     42c:	0f 90       	pop	r0
     42e:	0f 90       	pop	r0
     430:	0f 90       	pop	r0
     432:	e2 cf       	rjmp	.-60     	; 0x3f8 <subMenuLeft+0x5a>
		}
		else if(subButton == downButton)
     434:	82 33       	cpi	r24, 0x32	; 50
     436:	d1 f4       	brne	.+52     	; 0x46c <subMenuLeft+0xce>
		{
			while(!buttonReleased());
     438:	0e 94 38 01 	call	0x270	; 0x270 <buttonReleased>
     43c:	88 23       	and	r24, r24
     43e:	e1 f3       	breq	.-8      	; 0x438 <subMenuLeft+0x9a>
			ki-=1;
     440:	80 91 61 00 	lds	r24, 0x0061
     444:	81 50       	subi	r24, 0x01	; 1
     446:	80 93 61 00 	sts	0x0061, r24
			sprintf(menuStr2,"ki = %03d", ki);
     44a:	1f 92       	push	r1
     44c:	8f 93       	push	r24
     44e:	1f 93       	push	r17
     450:	0f 93       	push	r16
     452:	df 93       	push	r29
     454:	cf 93       	push	r28
     456:	0e 94 f6 0c 	call	0x19ec	; 0x19ec <sprintf>
			LcdTask();
     45a:	0e 94 40 01 	call	0x280	; 0x280 <LcdTask>
     45e:	0f 90       	pop	r0
     460:	0f 90       	pop	r0
     462:	0f 90       	pop	r0
     464:	0f 90       	pop	r0
     466:	0f 90       	pop	r0
     468:	0f 90       	pop	r0
     46a:	c6 cf       	rjmp	.-116    	; 0x3f8 <subMenuLeft+0x5a>
{
	char subButton = getButton();
	sprintf(menuStr1, "Adjust ki");
	sprintf(menuStr2,"ki = %03d", ki);
	LcdTask();
	while(subButton!=centralButton)
     46c:	84 33       	cpi	r24, 0x34	; 52
     46e:	21 f6       	brne	.-120    	; 0x3f8 <subMenuLeft+0x5a>
			ki-=1;
			sprintf(menuStr2,"ki = %03d", ki);
			LcdTask();
		}
	}
}
     470:	df 91       	pop	r29
     472:	cf 91       	pop	r28
     474:	1f 91       	pop	r17
     476:	0f 91       	pop	r16
     478:	08 95       	ret

0000047a <subMenuUp>:
void subMenuUp(void)
{
     47a:	cf 93       	push	r28
     47c:	df 93       	push	r29
	char subButton = getButton();
     47e:	0e 94 2f 01 	call	0x25e	; 0x25e <getButton>
     482:	c8 2f       	mov	r28, r24
	sprintf(menuStr1, "Run selection");
     484:	9e e0       	ldi	r25, 0x0E	; 14
     486:	e2 ec       	ldi	r30, 0xC2	; 194
     488:	f0 e0       	ldi	r31, 0x00	; 0
     48a:	a2 e3       	ldi	r26, 0x32	; 50
     48c:	b1 e0       	ldi	r27, 0x01	; 1
     48e:	01 90       	ld	r0, Z+
     490:	0d 92       	st	X+, r0
     492:	9a 95       	dec	r25
     494:	e1 f7       	brne	.-8      	; 0x48e <subMenuUp+0x14>
	LcdTask();
     496:	0e 94 40 01 	call	0x280	; 0x280 <LcdTask>
	while(subButton != centralButton)
     49a:	c4 33       	cpi	r28, 0x34	; 52
     49c:	09 f4       	brne	.+2      	; 0x4a0 <subMenuUp+0x26>
     49e:	40 c0       	rjmp	.+128    	; 0x520 <subMenuUp+0xa6>
bool getRunWallFlag(){
	return runWallFlag;
}

void setRunLineFlag(bool value){
	runLineFlag = value;
     4a0:	c1 e0       	ldi	r28, 0x01	; 1
			{
				// do nothing
			};
			setRunLineFlag(true);
			setRunWallFlag(false);
			sprintf(menuStr2,"RunLine()");
     4a2:	da e0       	ldi	r29, 0x0A	; 10
	char subButton = getButton();
	sprintf(menuStr1, "Run selection");
	LcdTask();
	while(subButton != centralButton)
	{
		subButton = getButton();
     4a4:	0e 94 2f 01 	call	0x25e	; 0x25e <getButton>
		if(subButton == upButton)
     4a8:	81 33       	cpi	r24, 0x31	; 49
     4aa:	d9 f4       	brne	.+54     	; 0x4e2 <subMenuUp+0x68>
		{
			while(!buttonReleased())
     4ac:	0e 94 38 01 	call	0x270	; 0x270 <buttonReleased>
     4b0:	88 23       	and	r24, r24
     4b2:	e1 f3       	breq	.-8      	; 0x4ac <subMenuUp+0x32>
bool getRunWallFlag(){
	return runWallFlag;
}

void setRunLineFlag(bool value){
	runLineFlag = value;
     4b4:	c0 93 f5 00 	sts	0x00F5, r28
}

void setRunWallFlag(bool value){
	runWallFlag = value;
     4b8:	10 92 f4 00 	sts	0x00F4, r1
			{
				// do nothing
			};
			setRunLineFlag(true);
			setRunWallFlag(false);
			sprintf(menuStr2,"RunLine()");
     4bc:	ee ea       	ldi	r30, 0xAE	; 174
     4be:	f0 e0       	ldi	r31, 0x00	; 0
     4c0:	a4 e2       	ldi	r26, 0x24	; 36
     4c2:	b1 e0       	ldi	r27, 0x01	; 1
     4c4:	8d 2f       	mov	r24, r29
     4c6:	01 90       	ld	r0, Z+
     4c8:	0d 92       	st	X+, r0
     4ca:	8a 95       	dec	r24
     4cc:	e1 f7       	brne	.-8      	; 0x4c6 <subMenuUp+0x4c>
			LcdTask();
     4ce:	0e 94 40 01 	call	0x280	; 0x280 <LcdTask>
			LCDGotoXY(15,0);
     4d2:	60 e0       	ldi	r22, 0x00	; 0
     4d4:	8f e0       	ldi	r24, 0x0F	; 15
     4d6:	0e 94 3f 04 	call	0x87e	; 0x87e <LCDGotoXY>
			LCDPutChar(' ');	// 0x20 using empty char blanks the up arrow
     4da:	80 e2       	ldi	r24, 0x20	; 32
     4dc:	0e 94 57 04 	call	0x8ae	; 0x8ae <LCDPutChar>
     4e0:	e1 cf       	rjmp	.-62     	; 0x4a4 <subMenuUp+0x2a>
		}
		else if(subButton == downButton)
     4e2:	82 33       	cpi	r24, 0x32	; 50
     4e4:	d9 f4       	brne	.+54     	; 0x51c <subMenuUp+0xa2>
		{
			while(!buttonReleased())
     4e6:	0e 94 38 01 	call	0x270	; 0x270 <buttonReleased>
     4ea:	88 23       	and	r24, r24
     4ec:	e1 f3       	breq	.-8      	; 0x4e6 <subMenuUp+0x6c>
void setRunLineFlag(bool value){
	runLineFlag = value;
}

void setRunWallFlag(bool value){
	runWallFlag = value;
     4ee:	c0 93 f4 00 	sts	0x00F4, r28
bool getRunWallFlag(){
	return runWallFlag;
}

void setRunLineFlag(bool value){
	runLineFlag = value;
     4f2:	10 92 f5 00 	sts	0x00F5, r1
			{
				// do nothing
			};
			setRunWallFlag(true);
			setRunLineFlag(false);
			sprintf(menuStr2,"RunWall()");
     4f6:	e8 eb       	ldi	r30, 0xB8	; 184
     4f8:	f0 e0       	ldi	r31, 0x00	; 0
     4fa:	a4 e2       	ldi	r26, 0x24	; 36
     4fc:	b1 e0       	ldi	r27, 0x01	; 1
     4fe:	8d 2f       	mov	r24, r29
     500:	01 90       	ld	r0, Z+
     502:	0d 92       	st	X+, r0
     504:	8a 95       	dec	r24
     506:	e1 f7       	brne	.-8      	; 0x500 <subMenuUp+0x86>
			LcdTask();
     508:	0e 94 40 01 	call	0x280	; 0x280 <LcdTask>
			LCDGotoXY(15,1);
     50c:	6c 2f       	mov	r22, r28
     50e:	8f e0       	ldi	r24, 0x0F	; 15
     510:	0e 94 3f 04 	call	0x87e	; 0x87e <LCDGotoXY>
			LCDPutChar(' ');	// 0x20 using empty char blanks the down arrow
     514:	80 e2       	ldi	r24, 0x20	; 32
     516:	0e 94 57 04 	call	0x8ae	; 0x8ae <LCDPutChar>
     51a:	c4 cf       	rjmp	.-120    	; 0x4a4 <subMenuUp+0x2a>
void subMenuUp(void)
{
	char subButton = getButton();
	sprintf(menuStr1, "Run selection");
	LcdTask();
	while(subButton != centralButton)
     51c:	84 33       	cpi	r24, 0x34	; 52
     51e:	11 f6       	brne	.-124    	; 0x4a4 <subMenuUp+0x2a>
			LcdTask();
			LCDGotoXY(15,1);
			LCDPutChar(' ');	// 0x20 using empty char blanks the down arrow
		}
	}
}
     520:	df 91       	pop	r29
     522:	cf 91       	pop	r28
     524:	08 95       	ret

00000526 <buttonMenu>:
//		'2':
//		'3':
//		'4':
/******************************************************************************/
void buttonMenu(void)
{
     526:	cf 93       	push	r28
	char lastButton = noButton;
	char button = getButton();
     528:	0e 94 2f 01 	call	0x25e	; 0x25e <getButton>
     52c:	c8 2f       	mov	r28, r24
	sprintf(menuStr1, "Run");
     52e:	82 e5       	ldi	r24, 0x52	; 82
     530:	95 e7       	ldi	r25, 0x75	; 117
     532:	ae e6       	ldi	r26, 0x6E	; 110
     534:	b0 e0       	ldi	r27, 0x00	; 0
     536:	80 93 32 01 	sts	0x0132, r24
     53a:	90 93 33 01 	sts	0x0133, r25
     53e:	a0 93 34 01 	sts	0x0134, r26
     542:	b0 93 35 01 	sts	0x0135, r27
	sprintf(menuStr2, "Parameters");
     546:	9b e0       	ldi	r25, 0x0B	; 11
     548:	e0 ed       	ldi	r30, 0xD0	; 208
     54a:	f0 e0       	ldi	r31, 0x00	; 0
     54c:	a4 e2       	ldi	r26, 0x24	; 36
     54e:	b1 e0       	ldi	r27, 0x01	; 1
     550:	01 90       	ld	r0, Z+
     552:	0d 92       	st	X+, r0
     554:	9a 95       	dec	r25
     556:	e1 f7       	brne	.-8      	; 0x550 <buttonMenu+0x2a>
	LcdTask();
     558:	0e 94 40 01 	call	0x280	; 0x280 <LcdTask>
	LCDGotoXY(15,0);
     55c:	60 e0       	ldi	r22, 0x00	; 0
     55e:	8f e0       	ldi	r24, 0x0F	; 15
     560:	0e 94 3f 04 	call	0x87e	; 0x87e <LCDGotoXY>
	LCDPutChar(1);	// display the up arrow
     564:	81 e0       	ldi	r24, 0x01	; 1
     566:	0e 94 57 04 	call	0x8ae	; 0x8ae <LCDPutChar>
	LCDGotoXY(14,1);
     56a:	61 e0       	ldi	r22, 0x01	; 1
     56c:	8e e0       	ldi	r24, 0x0E	; 14
     56e:	0e 94 3f 04 	call	0x87e	; 0x87e <LCDGotoXY>
	LCDPutChar(0x7F);	// display the left arrow
     572:	8f e7       	ldi	r24, 0x7F	; 127
     574:	0e 94 57 04 	call	0x8ae	; 0x8ae <LCDPutChar>
	LCDGotoXY(15,1);
     578:	61 e0       	ldi	r22, 0x01	; 1
     57a:	8f e0       	ldi	r24, 0x0F	; 15
     57c:	0e 94 3f 04 	call	0x87e	; 0x87e <LCDGotoXY>
	LCDPutChar(0x7E);	// display the right arrow
     580:	8e e7       	ldi	r24, 0x7E	; 126
     582:	0e 94 57 04 	call	0x8ae	; 0x8ae <LCDPutChar>
	while(button != centralButton)
     586:	c4 33       	cpi	r28, 0x34	; 52
     588:	e9 f0       	breq	.+58     	; 0x5c4 <buttonMenu+0x9e>
	{
		button=getButton();
     58a:	0e 94 2f 01 	call	0x25e	; 0x25e <getButton>
		if(button != lastButton)
     58e:	85 33       	cpi	r24, 0x35	; 53
     590:	e1 f3       	breq	.-8      	; 0x58a <buttonMenu+0x64>
		{
			switch (button)
     592:	81 33       	cpi	r24, 0x31	; 49
     594:	61 f0       	breq	.+24     	; 0x5ae <buttonMenu+0x88>
     596:	18 f4       	brcc	.+6      	; 0x59e <buttonMenu+0x78>
     598:	80 33       	cpi	r24, 0x30	; 48
     59a:	31 f0       	breq	.+12     	; 0x5a8 <buttonMenu+0x82>
     59c:	11 c0       	rjmp	.+34     	; 0x5c0 <buttonMenu+0x9a>
     59e:	82 33       	cpi	r24, 0x32	; 50
     5a0:	49 f0       	breq	.+18     	; 0x5b4 <buttonMenu+0x8e>
     5a2:	83 33       	cpi	r24, 0x33	; 51
     5a4:	51 f0       	breq	.+20     	; 0x5ba <buttonMenu+0x94>
     5a6:	0c c0       	rjmp	.+24     	; 0x5c0 <buttonMenu+0x9a>
			{
				case rightButton:
				subMenuRight();
     5a8:	0e 94 61 01 	call	0x2c2	; 0x2c2 <subMenuRight>
				break;
     5ac:	ee cf       	rjmp	.-36     	; 0x58a <buttonMenu+0x64>
				
				case upButton:
				subMenuUp();
     5ae:	0e 94 3d 02 	call	0x47a	; 0x47a <subMenuUp>
				break;
     5b2:	eb cf       	rjmp	.-42     	; 0x58a <buttonMenu+0x64>
}
void subMenuDown(void)
{
	while(1)
	{
		test();
     5b4:	0e 94 c3 07 	call	0xf86	; 0xf86 <test>
     5b8:	fd cf       	rjmp	.-6      	; 0x5b4 <buttonMenu+0x8e>
				case downButton:
				subMenuDown();
				break;

				case leftButton :
				subMenuLeft();
     5ba:	0e 94 cf 01 	call	0x39e	; 0x39e <subMenuLeft>
				break;
     5be:	e5 cf       	rjmp	.-54     	; 0x58a <buttonMenu+0x64>
	LCDPutChar(1);	// display the up arrow
	LCDGotoXY(14,1);
	LCDPutChar(0x7F);	// display the left arrow
	LCDGotoXY(15,1);
	LCDPutChar(0x7E);	// display the right arrow
	while(button != centralButton)
     5c0:	84 33       	cpi	r24, 0x34	; 52
     5c2:	19 f7       	brne	.-58     	; 0x58a <buttonMenu+0x64>
		}
	}
	
	lastButton = button;

}
     5c4:	cf 91       	pop	r28
     5c6:	08 95       	ret

000005c8 <initFloorSensor>:

// Initialize the Floor Sensor.
void initFloorSensor(){

	// Set the directions.
	setInput(DDRB, L3);
     5c8:	bf 98       	cbi	0x17, 7	; 23
	setInput(DDRB, L2);
     5ca:	be 98       	cbi	0x17, 6	; 23
	setInput(DDRB, L1);
     5cc:	bd 98       	cbi	0x17, 5	; 23
	setInput(DDRB, C1);
     5ce:	bc 98       	cbi	0x17, 4	; 23
	setInput(DDRA, R1);
     5d0:	d2 98       	cbi	0x1a, 2	; 26
	setInput(DDRA, R2);
     5d2:	d1 98       	cbi	0x1a, 1	; 26
	setInput(DDRA, R3);
     5d4:	d0 98       	cbi	0x1a, 0	; 26
     5d6:	08 95       	ret

000005d8 <showFloorInfo>:
	return 0;
}


// Writes on display floor sensor values in Binary and dec
void showFloorInfo(uint8_t data){
     5d8:	4f 92       	push	r4
     5da:	5f 92       	push	r5
     5dc:	6f 92       	push	r6
     5de:	7f 92       	push	r7
     5e0:	8f 92       	push	r8
     5e2:	9f 92       	push	r9
     5e4:	af 92       	push	r10
     5e6:	bf 92       	push	r11
     5e8:	cf 92       	push	r12
     5ea:	df 92       	push	r13
     5ec:	ef 92       	push	r14
     5ee:	ff 92       	push	r15
     5f0:	0f 93       	push	r16
     5f2:	1f 93       	push	r17
     5f4:	cf 93       	push	r28
     5f6:	df 93       	push	r29
     5f8:	cd b7       	in	r28, 0x3d	; 61
     5fa:	de b7       	in	r29, 0x3e	; 62
     5fc:	64 97       	sbiw	r28, 0x14	; 20
     5fe:	0f b6       	in	r0, 0x3f	; 63
     600:	f8 94       	cli
     602:	de bf       	out	0x3e, r29	; 62
     604:	0f be       	out	0x3f, r0	; 63
     606:	cd bf       	out	0x3d, r28	; 61
     608:	e8 2e       	mov	r14, r24

	char buffer[20];
	uint8_t i = 0;
	uint8_t value = 0;
	uint8_t dataTemp = data;
	LCDGotoXY(0,1);
     60a:	61 e0       	ldi	r22, 0x01	; 1
     60c:	80 e0       	ldi	r24, 0x00	; 0
     60e:	0e 94 3f 04 	call	0x87e	; 0x87e <LCDGotoXY>
     612:	00 e0       	ldi	r16, 0x00	; 0
     614:	10 e0       	ldi	r17, 0x00	; 0

	while(i <=6){
			value = ((dataTemp & (64>>i)) && 1);
     616:	f1 2c       	mov	r15, r1
     618:	68 94       	set
     61a:	88 24       	eor	r8, r8
     61c:	86 f8       	bld	r8, 6
     61e:	91 2c       	mov	r9, r1
     620:	44 24       	eor	r4, r4
     622:	43 94       	inc	r4
     624:	71 2c       	mov	r7, r1
			sprintf(buffer, "%d", value);
     626:	0f 2e       	mov	r0, r31
     628:	fb ed       	ldi	r31, 0xDB	; 219
     62a:	af 2e       	mov	r10, r31
     62c:	f0 e0       	ldi	r31, 0x00	; 0
     62e:	bf 2e       	mov	r11, r31
     630:	f0 2d       	mov	r31, r0
     632:	ce 01       	movw	r24, r28
     634:	01 96       	adiw	r24, 0x01	; 1
     636:	6c 01       	movw	r12, r24
	uint8_t value = 0;
	uint8_t dataTemp = data;
	LCDGotoXY(0,1);

	while(i <=6){
			value = ((dataTemp & (64>>i)) && 1);
     638:	6e 2c       	mov	r6, r14
     63a:	5f 2c       	mov	r5, r15
     63c:	c4 01       	movw	r24, r8
     63e:	00 2e       	mov	r0, r16
     640:	02 c0       	rjmp	.+4      	; 0x646 <showFloorInfo+0x6e>
     642:	95 95       	asr	r25
     644:	87 95       	ror	r24
     646:	0a 94       	dec	r0
     648:	e2 f7       	brpl	.-8      	; 0x642 <showFloorInfo+0x6a>
     64a:	8e 21       	and	r24, r14
     64c:	9f 21       	and	r25, r15
     64e:	24 2d       	mov	r18, r4
     650:	37 2d       	mov	r19, r7
     652:	89 2b       	or	r24, r25
     654:	09 f4       	brne	.+2      	; 0x658 <showFloorInfo+0x80>
     656:	27 2d       	mov	r18, r7
			sprintf(buffer, "%d", value);
     658:	3f 93       	push	r19
     65a:	2f 93       	push	r18
     65c:	bf 92       	push	r11
     65e:	af 92       	push	r10
     660:	df 92       	push	r13
     662:	cf 92       	push	r12
     664:	0e 94 f6 0c 	call	0x19ec	; 0x19ec <sprintf>
			LCDPutString(buffer);
     668:	c6 01       	movw	r24, r12
     66a:	0e 94 7f 04 	call	0x8fe	; 0x8fe <LCDPutString>
     66e:	0f 5f       	subi	r16, 0xFF	; 255
     670:	1f 4f       	sbci	r17, 0xFF	; 255
	uint8_t i = 0;
	uint8_t value = 0;
	uint8_t dataTemp = data;
	LCDGotoXY(0,1);

	while(i <=6){
     672:	0f 90       	pop	r0
     674:	0f 90       	pop	r0
     676:	0f 90       	pop	r0
     678:	0f 90       	pop	r0
     67a:	0f 90       	pop	r0
     67c:	0f 90       	pop	r0
     67e:	07 30       	cpi	r16, 0x07	; 7
     680:	11 05       	cpc	r17, r1
     682:	d1 f6       	brne	.-76     	; 0x638 <showFloorInfo+0x60>
			value = ((dataTemp & (64>>i)) && 1);
			sprintf(buffer, "%d", value);
			LCDPutString(buffer);
			i++;
	}
	sprintf(buffer, " %02d", data);
     684:	5f 92       	push	r5
     686:	6f 92       	push	r6
     688:	8e ed       	ldi	r24, 0xDE	; 222
     68a:	90 e0       	ldi	r25, 0x00	; 0
     68c:	9f 93       	push	r25
     68e:	8f 93       	push	r24
     690:	8e 01       	movw	r16, r28
     692:	0f 5f       	subi	r16, 0xFF	; 255
     694:	1f 4f       	sbci	r17, 0xFF	; 255
     696:	1f 93       	push	r17
     698:	0f 93       	push	r16
     69a:	0e 94 f6 0c 	call	0x19ec	; 0x19ec <sprintf>
	LCDPutString(buffer);
     69e:	c8 01       	movw	r24, r16
     6a0:	0e 94 7f 04 	call	0x8fe	; 0x8fe <LCDPutString>
     6a4:	0f 90       	pop	r0
     6a6:	0f 90       	pop	r0
     6a8:	0f 90       	pop	r0
     6aa:	0f 90       	pop	r0
     6ac:	0f 90       	pop	r0
     6ae:	0f 90       	pop	r0
}
     6b0:	64 96       	adiw	r28, 0x14	; 20
     6b2:	0f b6       	in	r0, 0x3f	; 63
     6b4:	f8 94       	cli
     6b6:	de bf       	out	0x3e, r29	; 62
     6b8:	0f be       	out	0x3f, r0	; 63
     6ba:	cd bf       	out	0x3d, r28	; 61
     6bc:	df 91       	pop	r29
     6be:	cf 91       	pop	r28
     6c0:	1f 91       	pop	r17
     6c2:	0f 91       	pop	r16
     6c4:	ff 90       	pop	r15
     6c6:	ef 90       	pop	r14
     6c8:	df 90       	pop	r13
     6ca:	cf 90       	pop	r12
     6cc:	bf 90       	pop	r11
     6ce:	af 90       	pop	r10
     6d0:	9f 90       	pop	r9
     6d2:	8f 90       	pop	r8
     6d4:	7f 90       	pop	r7
     6d6:	6f 90       	pop	r6
     6d8:	5f 90       	pop	r5
     6da:	4f 90       	pop	r4
     6dc:	08 95       	ret

000006de <readFloorSensors>:
	setInput(DDRA, R2);
	setInput(DDRA, R3);
}

// Read the current value from the floor sensors.
uint8_t readFloorSensors(){	
     6de:	cf 93       	push	r28
	uint8_t data = ((PINA & 240) >> 1) | (PINB & 7);
     6e0:	c9 b3       	in	r28, 0x19	; 25
     6e2:	86 b3       	in	r24, 0x16	; 22
     6e4:	c0 7f       	andi	r28, 0xF0	; 240
     6e6:	c6 95       	lsr	r28
     6e8:	87 70       	andi	r24, 0x07	; 7
     6ea:	c8 2b       	or	r28, r24

	// Write Floor sensor values on display.
	showFloorInfo(data);
     6ec:	8c 2f       	mov	r24, r28
     6ee:	0e 94 ec 02 	call	0x5d8	; 0x5d8 <showFloorInfo>
	return data;
}
     6f2:	8c 2f       	mov	r24, r28
     6f4:	cf 91       	pop	r28
     6f6:	08 95       	ret

000006f8 <calcFloorErrorAndFlagControl>:

// Calculates the error from floor sensor and change various flags.
float calcFloorErrorAndFlagControl()
{
     6f8:	cf 93       	push	r28
	static uint8_t oldData = 0;
	uint8_t data = readFloorSensors();
     6fa:	0e 94 6f 03 	call	0x6de	; 0x6de <readFloorSensors>
     6fe:	c8 2f       	mov	r28, r24
	// Check if on line, use new data. otherwise oldData
	// useful if the robot undershots a line in a turn.
	// Checks if it was going straight before loosing the line
	// then indicate with a LostLine flag.
	
	if(data != 0)
     700:	88 23       	and	r24, r24
     702:	19 f0       	breq	.+6      	; 0x70a <calcFloorErrorAndFlagControl+0x12>
	{
		oldData = data;
     704:	80 93 f6 00 	sts	0x00F6, r24
     708:	0f c0       	rjmp	.+30     	; 0x728 <calcFloorErrorAndFlagControl+0x30>
	}
	else
	{
		if((oldData == 0b00001000) || (oldData == 0b00001100) || (oldData == 0b00011000))
     70a:	c0 91 f6 00 	lds	r28, 0x00F6
     70e:	8c 2f       	mov	r24, r28
     710:	8b 7f       	andi	r24, 0xFB	; 251
     712:	88 30       	cpi	r24, 0x08	; 8
     714:	11 f0       	breq	.+4      	; 0x71a <calcFloorErrorAndFlagControl+0x22>
     716:	c8 31       	cpi	r28, 0x18	; 24
     718:	39 f4       	brne	.+14     	; 0x728 <calcFloorErrorAndFlagControl+0x30>
		{
			setLostLineFlag(1);
     71a:	81 e0       	ldi	r24, 0x01	; 1
     71c:	0e 94 c9 06 	call	0xd92	; 0xd92 <setLostLineFlag>
			return 0;
     720:	60 e0       	ldi	r22, 0x00	; 0
     722:	70 e0       	ldi	r23, 0x00	; 0
     724:	cb 01       	movw	r24, r22
     726:	72 c0       	rjmp	.+228    	; 0x80c <calcFloorErrorAndFlagControl+0x114>
		}
		data = oldData;
	}

	// Check for Line beginning, only once
	if(getFoundLineFlag() != 2)
     728:	0e 94 cc 06 	call	0xd98	; 0xd98 <getFoundLineFlag>
     72c:	82 30       	cpi	r24, 0x02	; 2
     72e:	69 f0       	breq	.+26     	; 0x74a <calcFloorErrorAndFlagControl+0x52>
     730:	8c 2f       	mov	r24, r28
     732:	88 71       	andi	r24, 0x18	; 24
	{
		if((data & 0b0001000) && (data & 0b0010000) && (data & 0b0000100))
     734:	88 31       	cpi	r24, 0x18	; 24
     736:	49 f4       	brne	.+18     	; 0x74a <calcFloorErrorAndFlagControl+0x52>
     738:	c2 ff       	sbrs	r28, 2
     73a:	07 c0       	rjmp	.+14     	; 0x74a <calcFloorErrorAndFlagControl+0x52>
		{
			setFoundLineFlag(1);
     73c:	81 e0       	ldi	r24, 0x01	; 1
     73e:	0e 94 c6 06 	call	0xd8c	; 0xd8c <setFoundLineFlag>
			return 0;
     742:	60 e0       	ldi	r22, 0x00	; 0
     744:	70 e0       	ldi	r23, 0x00	; 0
     746:	cb 01       	movw	r24, r22
     748:	61 c0       	rjmp	.+194    	; 0x80c <calcFloorErrorAndFlagControl+0x114>
		}
	}

	if((data == 0b01111111) || (data == 0b01110111))
     74a:	8c 2f       	mov	r24, r28
     74c:	87 7f       	andi	r24, 0xF7	; 247
     74e:	87 37       	cpi	r24, 0x77	; 119
     750:	19 f4       	brne	.+6      	; 0x758 <calcFloorErrorAndFlagControl+0x60>
	{
		setStopFlag(1);
     752:	81 e0       	ldi	r24, 0x01	; 1
     754:	0e 94 c3 06 	call	0xd86	; 0xd86 <setStopFlag>
	}

	if(getFoundLineFlag())
     758:	0e 94 cc 06 	call	0xd98	; 0xd98 <getFoundLineFlag>
     75c:	88 23       	and	r24, r24
     75e:	f1 f0       	breq	.+60     	; 0x79c <calcFloorErrorAndFlagControl+0xa4>
	{
		// Check Position on line.
		// Going Right returns positive
		// Going left returns negative.
		if((data == 0b01100000) || (data == 0b01000000))
     760:	8c 2f       	mov	r24, r28
     762:	8f 7d       	andi	r24, 0xDF	; 223
     764:	80 34       	cpi	r24, 0x40	; 64
     766:	f1 f0       	breq	.+60     	; 0x7a4 <calcFloorErrorAndFlagControl+0xac>
		{
			return 30;
		}
		if(data == 0b00100000)
     768:	c0 32       	cpi	r28, 0x20	; 32
     76a:	09 f1       	breq	.+66     	; 0x7ae <calcFloorErrorAndFlagControl+0xb6>
		{
			return 26;
		}
		if(data == 0b00110000)
     76c:	c0 33       	cpi	r28, 0x30	; 48
     76e:	21 f1       	breq	.+72     	; 0x7b8 <calcFloorErrorAndFlagControl+0xc0>
		{
			return 16;
		}
		if(data == 0b00010000)
     770:	c0 31       	cpi	r28, 0x10	; 16
     772:	39 f1       	breq	.+78     	; 0x7c2 <calcFloorErrorAndFlagControl+0xca>
		{
			return 12;
		}		
		if(data == 0b00011000)
     774:	c8 31       	cpi	r28, 0x18	; 24
     776:	51 f1       	breq	.+84     	; 0x7cc <calcFloorErrorAndFlagControl+0xd4>
		{
			return 2;
		}
		if(data == 0b00001000)
     778:	c8 30       	cpi	r28, 0x08	; 8
     77a:	69 f1       	breq	.+90     	; 0x7d6 <calcFloorErrorAndFlagControl+0xde>
		{
			return 0;
		}
		if(data == 0b00001100)
     77c:	cc 30       	cpi	r28, 0x0C	; 12
     77e:	79 f1       	breq	.+94     	; 0x7de <calcFloorErrorAndFlagControl+0xe6>
		{
			return -2;
		}
		if(data == 0b00000100)
     780:	c4 30       	cpi	r28, 0x04	; 4
     782:	91 f1       	breq	.+100    	; 0x7e8 <calcFloorErrorAndFlagControl+0xf0>
		{
			return -12;
		}
		if(data == 0b00000110)
     784:	c6 30       	cpi	r28, 0x06	; 6
     786:	a9 f1       	breq	.+106    	; 0x7f2 <calcFloorErrorAndFlagControl+0xfa>
		{
			return -16;
		}
		if(data == 0b00000010)
     788:	c2 30       	cpi	r28, 0x02	; 2
     78a:	c1 f1       	breq	.+112    	; 0x7fc <calcFloorErrorAndFlagControl+0x104>
		{
			return -26;
		}
		if((data == 0b00000011) || (data == 0b00000001))
     78c:	cd 7f       	andi	r28, 0xFD	; 253
     78e:	c1 30       	cpi	r28, 0x01	; 1
     790:	d1 f5       	brne	.+116    	; 0x806 <calcFloorErrorAndFlagControl+0x10e>
		{
			return -30;
     792:	60 e0       	ldi	r22, 0x00	; 0
     794:	70 e0       	ldi	r23, 0x00	; 0
     796:	80 ef       	ldi	r24, 0xF0	; 240
     798:	91 ec       	ldi	r25, 0xC1	; 193
     79a:	38 c0       	rjmp	.+112    	; 0x80c <calcFloorErrorAndFlagControl+0x114>
		}
	}
	return 0;
     79c:	60 e0       	ldi	r22, 0x00	; 0
     79e:	70 e0       	ldi	r23, 0x00	; 0
     7a0:	cb 01       	movw	r24, r22
     7a2:	34 c0       	rjmp	.+104    	; 0x80c <calcFloorErrorAndFlagControl+0x114>
		// Check Position on line.
		// Going Right returns positive
		// Going left returns negative.
		if((data == 0b01100000) || (data == 0b01000000))
		{
			return 30;
     7a4:	60 e0       	ldi	r22, 0x00	; 0
     7a6:	70 e0       	ldi	r23, 0x00	; 0
     7a8:	80 ef       	ldi	r24, 0xF0	; 240
     7aa:	91 e4       	ldi	r25, 0x41	; 65
     7ac:	2f c0       	rjmp	.+94     	; 0x80c <calcFloorErrorAndFlagControl+0x114>
		}
		if(data == 0b00100000)
		{
			return 26;
     7ae:	60 e0       	ldi	r22, 0x00	; 0
     7b0:	70 e0       	ldi	r23, 0x00	; 0
     7b2:	80 ed       	ldi	r24, 0xD0	; 208
     7b4:	91 e4       	ldi	r25, 0x41	; 65
     7b6:	2a c0       	rjmp	.+84     	; 0x80c <calcFloorErrorAndFlagControl+0x114>
		}
		if(data == 0b00110000)
		{
			return 16;
     7b8:	60 e0       	ldi	r22, 0x00	; 0
     7ba:	70 e0       	ldi	r23, 0x00	; 0
     7bc:	80 e8       	ldi	r24, 0x80	; 128
     7be:	91 e4       	ldi	r25, 0x41	; 65
     7c0:	25 c0       	rjmp	.+74     	; 0x80c <calcFloorErrorAndFlagControl+0x114>
		}
		if(data == 0b00010000)
		{
			return 12;
     7c2:	60 e0       	ldi	r22, 0x00	; 0
     7c4:	70 e0       	ldi	r23, 0x00	; 0
     7c6:	80 e4       	ldi	r24, 0x40	; 64
     7c8:	91 e4       	ldi	r25, 0x41	; 65
     7ca:	20 c0       	rjmp	.+64     	; 0x80c <calcFloorErrorAndFlagControl+0x114>
		}		
		if(data == 0b00011000)
		{
			return 2;
     7cc:	60 e0       	ldi	r22, 0x00	; 0
     7ce:	70 e0       	ldi	r23, 0x00	; 0
     7d0:	80 e0       	ldi	r24, 0x00	; 0
     7d2:	90 e4       	ldi	r25, 0x40	; 64
     7d4:	1b c0       	rjmp	.+54     	; 0x80c <calcFloorErrorAndFlagControl+0x114>
		}
		if(data == 0b00001000)
		{
			return 0;
     7d6:	60 e0       	ldi	r22, 0x00	; 0
     7d8:	70 e0       	ldi	r23, 0x00	; 0
     7da:	cb 01       	movw	r24, r22
     7dc:	17 c0       	rjmp	.+46     	; 0x80c <calcFloorErrorAndFlagControl+0x114>
		}
		if(data == 0b00001100)
		{
			return -2;
     7de:	60 e0       	ldi	r22, 0x00	; 0
     7e0:	70 e0       	ldi	r23, 0x00	; 0
     7e2:	80 e0       	ldi	r24, 0x00	; 0
     7e4:	90 ec       	ldi	r25, 0xC0	; 192
     7e6:	12 c0       	rjmp	.+36     	; 0x80c <calcFloorErrorAndFlagControl+0x114>
		}
		if(data == 0b00000100)
		{
			return -12;
     7e8:	60 e0       	ldi	r22, 0x00	; 0
     7ea:	70 e0       	ldi	r23, 0x00	; 0
     7ec:	80 e4       	ldi	r24, 0x40	; 64
     7ee:	91 ec       	ldi	r25, 0xC1	; 193
     7f0:	0d c0       	rjmp	.+26     	; 0x80c <calcFloorErrorAndFlagControl+0x114>
		}
		if(data == 0b00000110)
		{
			return -16;
     7f2:	60 e0       	ldi	r22, 0x00	; 0
     7f4:	70 e0       	ldi	r23, 0x00	; 0
     7f6:	80 e8       	ldi	r24, 0x80	; 128
     7f8:	91 ec       	ldi	r25, 0xC1	; 193
     7fa:	08 c0       	rjmp	.+16     	; 0x80c <calcFloorErrorAndFlagControl+0x114>
		}
		if(data == 0b00000010)
		{
			return -26;
     7fc:	60 e0       	ldi	r22, 0x00	; 0
     7fe:	70 e0       	ldi	r23, 0x00	; 0
     800:	80 ed       	ldi	r24, 0xD0	; 208
     802:	91 ec       	ldi	r25, 0xC1	; 193
     804:	03 c0       	rjmp	.+6      	; 0x80c <calcFloorErrorAndFlagControl+0x114>
		if((data == 0b00000011) || (data == 0b00000001))
		{
			return -30;
		}
	}
	return 0;
     806:	60 e0       	ldi	r22, 0x00	; 0
     808:	70 e0       	ldi	r23, 0x00	; 0
     80a:	cb 01       	movw	r24, r22
}
     80c:	cf 91       	pop	r28
     80e:	08 95       	ret

00000810 <LCD_delay>:
// Delay. Circa 200 us at 10 MHz
// The data sheet says that 40 us is sufficient, but the displays we have
// require more than 100 us to work properly.
void LCD_delay(void) __attribute__ ((noinline)); // noinline prevents problems when optimizing with option -O3
void LCD_delay(void)  {
   __asm__ __volatile__("ldi r31,65 \n 1:\n dec r31 \n brne 1b" ::: "r31");
     810:	f1 e4       	ldi	r31, 0x41	; 65
     812:	fa 95       	dec	r31
     814:	f1 f7       	brne	.-4      	; 0x812 <LCD_delay+0x2>
     816:	08 95       	ret

00000818 <LCD_write_nibble>:
}

// Write 4 bits
static void LCD_write_nibble(char data) {
   const char DataMask = 0x0F << LCD_DATA4;
   LCD_PORT = (LCD_PORT & ~DataMask) | (data & DataMask);
     818:	95 b3       	in	r25, 0x15	; 21
     81a:	80 7f       	andi	r24, 0xF0	; 240
     81c:	9f 70       	andi	r25, 0x0F	; 15
     81e:	89 2b       	or	r24, r25
     820:	85 bb       	out	0x15, r24	; 21
   LCD_PORT |= (1<<LCD_ENABLE); // EN=1
     822:	ab 9a       	sbi	0x15, 3	; 21
   LCD_delay();
     824:	0e 94 08 04 	call	0x810	; 0x810 <LCD_delay>
   LCD_PORT &= ~(1<<LCD_ENABLE); // EN=0
     828:	ab 98       	cbi	0x15, 3	; 21
   LCD_delay();
     82a:	0e 94 08 04 	call	0x810	; 0x810 <LCD_delay>
     82e:	08 95       	ret

00000830 <LCD_write_data>:
}

// Write 8 bits. RS = 0 or 1
static void LCD_write_data(unsigned char data) {
     830:	cf 93       	push	r28
     832:	c8 2f       	mov	r28, r24
   LCD_write_nibble(data);            // RD=0, write MSN
     834:	0e 94 0c 04 	call	0x818	; 0x818 <LCD_write_nibble>
   LCD_write_nibble(data << 4);       // write LSN
     838:	8c 2f       	mov	r24, r28
     83a:	82 95       	swap	r24
     83c:	80 7f       	andi	r24, 0xF0	; 240
     83e:	0e 94 0c 04 	call	0x818	; 0x818 <LCD_write_nibble>
}
     842:	cf 91       	pop	r28
     844:	08 95       	ret

00000846 <LCD_long_delay>:
}

// Long delay. Circa 26 ms at 10 MHz
void LCD_long_delay(void) __attribute__ ((noinline));
void LCD_long_delay(void) {
   __asm__ __volatile__("clr r26 \n clr r27 \n 2:\n sbiw r26,1\n brne 2b \n" ::: "r26", "r27");
     846:	aa 27       	eor	r26, r26
     848:	bb 27       	eor	r27, r27
     84a:	11 97       	sbiw	r26, 0x01	; 1
     84c:	f1 f7       	brne	.-4      	; 0x84a <LCD_long_delay+0x4>
     84e:	08 95       	ret

00000850 <LCDClear>:
   
}

// Clear the LCD display
void LCDClear(void) {
   LCD_long_delay();
     850:	0e 94 23 04 	call	0x846	; 0x846 <LCD_long_delay>
   LCD_PORT &= ~(1<<LCD_RS);          // RS=0
     854:	aa 98       	cbi	0x15, 2	; 21
   LCD_write_data(2);                 // cursor home
     856:	82 e0       	ldi	r24, 0x02	; 2
     858:	0e 94 18 04 	call	0x830	; 0x830 <LCD_write_data>
   LCD_long_delay();
     85c:	0e 94 23 04 	call	0x846	; 0x846 <LCD_long_delay>
   LCD_write_data(0xC);               // cursor off
     860:	8c e0       	ldi	r24, 0x0C	; 12
     862:	0e 94 18 04 	call	0x830	; 0x830 <LCD_write_data>
   LCD_long_delay();
     866:	0e 94 23 04 	call	0x846	; 0x846 <LCD_long_delay>
   LCD_write_data(1);                 // clear
     86a:	81 e0       	ldi	r24, 0x01	; 1
     86c:	0e 94 18 04 	call	0x830	; 0x830 <LCD_write_data>
   LCD_long_delay();
     870:	0e 94 23 04 	call	0x846	; 0x846 <LCD_long_delay>
   LCD_x = LCD_y = 0;
     874:	10 92 f8 00 	sts	0x00F8, r1
     878:	10 92 f9 00 	sts	0x00F9, r1
     87c:	08 95       	ret

0000087e <LCDGotoXY>:
}

// Set the LCD display position
void LCDGotoXY(unsigned char x, unsigned char y) {
     87e:	cf 93       	push	r28
     880:	df 93       	push	r29
     882:	d8 2f       	mov	r29, r24
     884:	c6 2f       	mov	r28, r22
   LCD_delay();
     886:	0e 94 08 04 	call	0x810	; 0x810 <LCD_delay>
   LCD_PORT &= ~(1<<LCD_RS);       // RS=0
     88a:	aa 98       	cbi	0x15, 2	; 21
   LCD_write_data(LCD_base_y[y]+x);
     88c:	ec 2f       	mov	r30, r28
     88e:	f0 e0       	ldi	r31, 0x00	; 0
     890:	ed 59       	subi	r30, 0x9D	; 157
     892:	ff 4f       	sbci	r31, 0xFF	; 255
     894:	80 81       	ld	r24, Z
     896:	8d 0f       	add	r24, r29
     898:	0e 94 18 04 	call	0x830	; 0x830 <LCD_write_data>
   LCD_x = x;
     89c:	d0 93 f9 00 	sts	0x00F9, r29
   LCD_y = y;
     8a0:	c0 93 f8 00 	sts	0x00F8, r28
   LCD_delay();
     8a4:	0e 94 08 04 	call	0x810	; 0x810 <LCD_delay>
   //LCD_long_delay();
}
     8a8:	df 91       	pop	r29
     8aa:	cf 91       	pop	r28
     8ac:	08 95       	ret

000008ae <LCDPutChar>:
   char c;
   for (; (c = *str) != 0; str++) LCDPutChar(c);
}

// write a single ASCII character to the display
void LCDPutChar(char c) {
     8ae:	cf 93       	push	r28
     8b0:	c8 2f       	mov	r28, r24
   if (c == '\n') {
     8b2:	8a 30       	cpi	r24, 0x0A	; 10
     8b4:	49 f4       	brne	.+18     	; 0x8c8 <LCDPutChar+0x1a>
      // newline character goes to next line
      ++LCD_y;
     8b6:	60 91 f8 00 	lds	r22, 0x00F8
     8ba:	6f 5f       	subi	r22, 0xFF	; 255
     8bc:	60 93 f8 00 	sts	0x00F8, r22
      LCDGotoXY(0,LCD_y);
     8c0:	80 e0       	ldi	r24, 0x00	; 0
     8c2:	0e 94 3f 04 	call	0x87e	; 0x87e <LCDGotoXY>
     8c6:	19 c0       	rjmp	.+50     	; 0x8fa <LCDPutChar+0x4c>
   }
   else {
      // any other character
      ++LCD_x;
     8c8:	90 91 f9 00 	lds	r25, 0x00F9
     8cc:	9f 5f       	subi	r25, 0xFF	; 255
     8ce:	90 93 f9 00 	sts	0x00F9, r25
      if (LCD_x>LCD_maxx) {
     8d2:	80 91 f7 00 	lds	r24, 0x00F7
     8d6:	89 17       	cp	r24, r25
     8d8:	40 f4       	brcc	.+16     	; 0x8ea <LCDPutChar+0x3c>
         // end of line. go to next line
         ++LCD_y;
     8da:	60 91 f8 00 	lds	r22, 0x00F8
     8de:	6f 5f       	subi	r22, 0xFF	; 255
     8e0:	60 93 f8 00 	sts	0x00F8, r22
         LCDGotoXY(0,LCD_y);
     8e4:	80 e0       	ldi	r24, 0x00	; 0
     8e6:	0e 94 3f 04 	call	0x87e	; 0x87e <LCDGotoXY>
      }
      LCD_delay();
     8ea:	0e 94 08 04 	call	0x810	; 0x810 <LCD_delay>
      LCD_PORT |= (1<<LCD_RS);  // RS = 1
     8ee:	aa 9a       	sbi	0x15, 2	; 21
      LCD_write_data(c);
     8f0:	8c 2f       	mov	r24, r28
     8f2:	0e 94 18 04 	call	0x830	; 0x830 <LCD_write_data>
      LCD_delay();
     8f6:	0e 94 08 04 	call	0x810	; 0x810 <LCD_delay>
   }
}
     8fa:	cf 91       	pop	r28
     8fc:	08 95       	ret

000008fe <LCDPutString>:
   LCD_delay();
   //LCD_long_delay();
}

// write a zero-terminated ASCII string to the display
void LCDPutString(const char *str) {
     8fe:	cf 93       	push	r28
     900:	df 93       	push	r29
     902:	ec 01       	movw	r28, r24
   char c;
   for (; (c = *str) != 0; str++) LCDPutChar(c);
     904:	88 81       	ld	r24, Y
     906:	88 23       	and	r24, r24
     908:	31 f0       	breq	.+12     	; 0x916 <LCDPutString+0x18>
     90a:	21 96       	adiw	r28, 0x01	; 1
     90c:	0e 94 57 04 	call	0x8ae	; 0x8ae <LCDPutChar>
     910:	89 91       	ld	r24, Y+
     912:	81 11       	cpse	r24, r1
     914:	fb cf       	rjmp	.-10     	; 0x90c <LCDPutString+0xe>
}
     916:	df 91       	pop	r29
     918:	cf 91       	pop	r28
     91a:	08 95       	ret

0000091c <LCDInit>:
//                       Public functions                              //
//                                                                     //
/////////////////////////////////////////////////////////////////////////

// Initialize the LCD controller. Specify the number of columns
void LCDInit(unsigned char lcd_columns) {
     91c:	ef 92       	push	r14
     91e:	ff 92       	push	r15
     920:	0f 93       	push	r16
     922:	1f 93       	push	r17
     924:	cf 93       	push	r28
     926:	df 93       	push	r29
     928:	cd b7       	in	r28, 0x3d	; 61
     92a:	de b7       	in	r29, 0x3e	; 62
     92c:	60 97       	sbiw	r28, 0x10	; 16
     92e:	0f b6       	in	r0, 0x3f	; 63
     930:	f8 94       	cli
     932:	de bf       	out	0x3e, r29	; 62
     934:	0f be       	out	0x3f, r0	; 63
     936:	cd bf       	out	0x3d, r28	; 61
	const uint8_t cUp[] = {0x04,0x0E,0x15,0x04,0x04,0x00,0x00,0x00,};
     938:	98 e0       	ldi	r25, 0x08	; 8
     93a:	e6 e7       	ldi	r30, 0x76	; 118
     93c:	f0 e0       	ldi	r31, 0x00	; 0
     93e:	de 01       	movw	r26, r28
     940:	11 96       	adiw	r26, 0x01	; 1
     942:	01 90       	ld	r0, Z+
     944:	0d 92       	st	X+, r0
     946:	9a 95       	dec	r25
     948:	e1 f7       	brne	.-8      	; 0x942 <LCDInit+0x26>
	const uint8_t cDown[] = {0x04,0x04,0x15,0x0E,0x04,0x00,0x00,0x00};
     94a:	98 e0       	ldi	r25, 0x08	; 8
     94c:	ee e7       	ldi	r30, 0x7E	; 126
     94e:	f0 e0       	ldi	r31, 0x00	; 0
     950:	de 01       	movw	r26, r28
     952:	19 96       	adiw	r26, 0x09	; 9
     954:	01 90       	ld	r0, Z+
     956:	0d 92       	st	X+, r0
     958:	9a 95       	dec	r25
     95a:	e1 f7       	brne	.-8      	; 0x954 <LCDInit+0x38>

   LCD_PORT &= ~((1<<LCD_ENABLE) | (1<<LCD_RS)); // EN=0, RS=0
     95c:	95 b3       	in	r25, 0x15	; 21
     95e:	93 7f       	andi	r25, 0xF3	; 243
     960:	95 bb       	out	0x15, r25	; 21
   LCD_PORT &= ~(1<<LCD_RD); // Set RD = 0 in case it is connected
     962:	a9 98       	cbi	0x15, 1	; 21
   LCD_DIRECTION |= (0xF << LCD_DATA4) | (1<<LCD_RS) | (1<<LCD_ENABLE) ; // set all as output
     964:	94 b3       	in	r25, 0x14	; 20
     966:	9c 6f       	ori	r25, 0xFC	; 252
     968:	94 bb       	out	0x14, r25	; 20
   //LCD_DIRECTION |= (1<<LCD_RD); // set RD as output if it is connected
   LCD_maxx = lcd_columns;
     96a:	80 93 f7 00 	sts	0x00F7, r24
   LCD_base_y[2] = lcd_columns+0x80;
     96e:	e3 e6       	ldi	r30, 0x63	; 99
     970:	f0 e0       	ldi	r31, 0x00	; 0
     972:	90 e8       	ldi	r25, 0x80	; 128
     974:	98 0f       	add	r25, r24
     976:	92 83       	std	Z+2, r25	; 0x02
   LCD_base_y[3] = lcd_columns+0xc0;
     978:	80 54       	subi	r24, 0x40	; 64
     97a:	83 83       	std	Z+3, r24	; 0x03
   LCD_long_delay();
     97c:	0e 94 23 04 	call	0x846	; 0x846 <LCD_long_delay>
   LCD_write_nibble(0x30);
     980:	80 e3       	ldi	r24, 0x30	; 48
     982:	0e 94 0c 04 	call	0x818	; 0x818 <LCD_write_nibble>
   LCD_long_delay();
     986:	0e 94 23 04 	call	0x846	; 0x846 <LCD_long_delay>
   LCD_write_nibble(0x30);
     98a:	80 e3       	ldi	r24, 0x30	; 48
     98c:	0e 94 0c 04 	call	0x818	; 0x818 <LCD_write_nibble>
   LCD_long_delay();
     990:	0e 94 23 04 	call	0x846	; 0x846 <LCD_long_delay>
   LCD_write_nibble(0x30);
     994:	80 e3       	ldi	r24, 0x30	; 48
     996:	0e 94 0c 04 	call	0x818	; 0x818 <LCD_write_nibble>
   LCD_long_delay();
     99a:	0e 94 23 04 	call	0x846	; 0x846 <LCD_long_delay>
   LCD_write_nibble(0x20);
     99e:	80 e2       	ldi	r24, 0x20	; 32
     9a0:	0e 94 0c 04 	call	0x818	; 0x818 <LCD_write_nibble>
   LCD_long_delay();
     9a4:	0e 94 23 04 	call	0x846	; 0x846 <LCD_long_delay>
   LCD_write_data(0x28);
     9a8:	88 e2       	ldi	r24, 0x28	; 40
     9aa:	0e 94 18 04 	call	0x830	; 0x830 <LCD_write_data>
   LCD_long_delay();
     9ae:	0e 94 23 04 	call	0x846	; 0x846 <LCD_long_delay>
   LCD_write_data(4);
     9b2:	84 e0       	ldi	r24, 0x04	; 4
     9b4:	0e 94 18 04 	call	0x830	; 0x830 <LCD_write_data>
   LCD_long_delay();
     9b8:	0e 94 23 04 	call	0x846	; 0x846 <LCD_long_delay>
   LCD_write_data(0x85);
     9bc:	85 e8       	ldi	r24, 0x85	; 133
     9be:	0e 94 18 04 	call	0x830	; 0x830 <LCD_write_data>
   LCD_long_delay();
     9c2:	0e 94 23 04 	call	0x846	; 0x846 <LCD_long_delay>
   LCD_PORT &= ~(1<<LCD_RS);
     9c6:	aa 98       	cbi	0x15, 2	; 21
   LCD_write_data(6);
     9c8:	86 e0       	ldi	r24, 0x06	; 6
     9ca:	0e 94 18 04 	call	0x830	; 0x830 <LCD_write_data>
// Return:
/******************************************************************************/
static void LcdCgramWr (uint8_t addr, const uint8_t *d)
{                        
   uint8_t i;
   LCD_write_data(0x40 + 8*addr);
     9ce:	80 e4       	ldi	r24, 0x40	; 64
     9d0:	0e 94 18 04 	call	0x830	; 0x830 <LCD_write_data>
     9d4:	8e 01       	movw	r16, r28
     9d6:	07 5f       	subi	r16, 0xF7	; 247
     9d8:	1f 4f       	sbci	r17, 0xFF	; 255
        // cmd to LCD to receive data to CG-Ram
   for (i = 0; i <= 7; i++) {
     9da:	7e 01       	movw	r14, r28
     9dc:	81 e1       	ldi	r24, 0x11	; 17
     9de:	e8 0e       	add	r14, r24
     9e0:	f1 1c       	adc	r15, r1
    
      LCDPutChar(*d);               // tx 8 char to CG-Ram
     9e2:	f8 01       	movw	r30, r16
     9e4:	81 91       	ld	r24, Z+
     9e6:	8f 01       	movw	r16, r30
     9e8:	0e 94 57 04 	call	0x8ae	; 0x8ae <LCDPutChar>
static void LcdCgramWr (uint8_t addr, const uint8_t *d)
{                        
   uint8_t i;
   LCD_write_data(0x40 + 8*addr);
        // cmd to LCD to receive data to CG-Ram
   for (i = 0; i <= 7; i++) {
     9ec:	0e 15       	cp	r16, r14
     9ee:	1f 05       	cpc	r17, r15
     9f0:	c1 f7       	brne	.-16     	; 0x9e2 <LCDInit+0xc6>
    
      LCDPutChar(*d);               // tx 8 char to CG-Ram
      d++;                          // point to next value
   }
   LCD_write_data(0x80);                 // back to DD ram
     9f2:	80 e8       	ldi	r24, 0x80	; 128
     9f4:	0e 94 18 04 	call	0x830	; 0x830 <LCD_write_data>
// Return:
/******************************************************************************/
static void LcdCgramWr (uint8_t addr, const uint8_t *d)
{                        
   uint8_t i;
   LCD_write_data(0x40 + 8*addr);
     9f8:	88 e4       	ldi	r24, 0x48	; 72
     9fa:	0e 94 18 04 	call	0x830	; 0x830 <LCD_write_data>
     9fe:	8e 01       	movw	r16, r28
     a00:	0f 5f       	subi	r16, 0xFF	; 255
     a02:	1f 4f       	sbci	r17, 0xFF	; 255
        // cmd to LCD to receive data to CG-Ram
   for (i = 0; i <= 7; i++) {
     a04:	7e 01       	movw	r14, r28
     a06:	f9 e0       	ldi	r31, 0x09	; 9
     a08:	ef 0e       	add	r14, r31
     a0a:	f1 1c       	adc	r15, r1
    
      LCDPutChar(*d);               // tx 8 char to CG-Ram
     a0c:	f8 01       	movw	r30, r16
     a0e:	81 91       	ld	r24, Z+
     a10:	8f 01       	movw	r16, r30
     a12:	0e 94 57 04 	call	0x8ae	; 0x8ae <LCDPutChar>
static void LcdCgramWr (uint8_t addr, const uint8_t *d)
{                        
   uint8_t i;
   LCD_write_data(0x40 + 8*addr);
        // cmd to LCD to receive data to CG-Ram
   for (i = 0; i <= 7; i++) {
     a16:	0e 15       	cp	r16, r14
     a18:	1f 05       	cpc	r17, r15
     a1a:	c1 f7       	brne	.-16     	; 0xa0c <LCDInit+0xf0>
    
      LCDPutChar(*d);               // tx 8 char to CG-Ram
      d++;                          // point to next value
   }
   LCD_write_data(0x80);                 // back to DD ram
     a1c:	80 e8       	ldi	r24, 0x80	; 128
     a1e:	0e 94 18 04 	call	0x830	; 0x830 <LCD_write_data>
   LCD_PORT &= ~(1<<LCD_RS);
   LCD_write_data(6);
   
   LcdCgramWr(0,cDown);
   LcdCgramWr(1,cUp);
   LCDClear();
     a22:	0e 94 28 04 	call	0x850	; 0x850 <LCDClear>
   
}
     a26:	60 96       	adiw	r28, 0x10	; 16
     a28:	0f b6       	in	r0, 0x3f	; 63
     a2a:	f8 94       	cli
     a2c:	de bf       	out	0x3e, r29	; 62
     a2e:	0f be       	out	0x3f, r0	; 63
     a30:	cd bf       	out	0x3d, r28	; 61
     a32:	df 91       	pop	r29
     a34:	cf 91       	pop	r28
     a36:	1f 91       	pop	r17
     a38:	0f 91       	pop	r16
     a3a:	ff 90       	pop	r15
     a3c:	ef 90       	pop	r14
     a3e:	08 95       	ret

00000a40 <LEDWrite>:
	LEDUpdate();
}

//Send data through SPI
void LEDWrite(uint8_t data){
	SPDR = data;
     a40:	8f b9       	out	0x0f, r24	; 15
	while(!(SPSR & 0b10000000)){}
     a42:	77 9b       	sbis	0x0e, 7	; 14
     a44:	fe cf       	rjmp	.-4      	; 0xa42 <LEDWrite+0x2>
}
     a46:	08 95       	ret

00000a48 <LEDUpdate>:

// Send new values to shift registers.
void LEDUpdate(){
	setLow(PORTB, SPI_SS);
     a48:	c4 98       	cbi	0x18, 4	; 24
	LEDWrite(ledBank1);
     a4a:	80 91 67 00 	lds	r24, 0x0067
     a4e:	0e 94 20 05 	call	0xa40	; 0xa40 <LEDWrite>
	LEDWrite(ledBank0);
     a52:	80 91 06 01 	lds	r24, 0x0106
     a56:	0e 94 20 05 	call	0xa40	; 0xa40 <LEDWrite>
	setHigh(PORTB, SPI_SS);
     a5a:	c4 9a       	sbi	0x18, 4	; 24
     a5c:	08 95       	ret

00000a5e <LEDInit>:
	// bit4 MSTR	1 = Set to Master.
	// bit3 CPOL	1 = SCK low when idle
	// bit2 CPHA	1 = setup falling, sample rising (mode3)
	// bit1	SPR1	0 = fosc/4 = 2.5 MHz
	// bit0 SPR0 	0
	SPCR = 0b01011100;
     a5e:	8c e5       	ldi	r24, 0x5C	; 92
     a60:	8d b9       	out	0x0d, r24	; 13

	// SPI Status Register SPSR
	SPSR = 0b00000000;
     a62:	1e b8       	out	0x0e, r1	; 14

	//set directions
	setOutput(DDRB, SPI_CLK);
     a64:	bf 9a       	sbi	0x17, 7	; 23
	setOutput(DDRB, SPI_MOSI);
     a66:	bd 9a       	sbi	0x17, 5	; 23
	setOutput(DDRB, SPI_SS);
     a68:	bc 9a       	sbi	0x17, 4	; 23
	setOutput(DDRC, LED_OE);
     a6a:	a1 9a       	sbi	0x14, 1	; 20

	// Set the initial output values for outputs
	setLow(PORTB, SPI_MOSI);
     a6c:	c5 98       	cbi	0x18, 5	; 24
	setLow(PORTB, SPI_SS);
     a6e:	c4 98       	cbi	0x18, 4	; 24
	setHigh(PORTC, LED_OE);		//default off
     a70:	a9 9a       	sbi	0x15, 1	; 21

	// Initilize Timer/Counter 2		
	TCCR2 = 0b00001101;
     a72:	8d e0       	ldi	r24, 0x0D	; 13
     a74:	85 bd       	out	0x25, r24	; 37
	// WGM CTC, OCR2 is TOP
	// clk/128 prescaler = 78.125 Hz
	
	TCNT2 = 0;	// reset counter0
     a76:	14 bc       	out	0x24, r1	; 36
	OCR2 = 25;	// Counter divisor 78.125 Hz/25 = 3005 Hz 
     a78:	89 e1       	ldi	r24, 0x19	; 25
     a7a:	83 bd       	out	0x23, r24	; 35

	// Update, set all Led's off
	LEDUpdate();
     a7c:	0e 94 24 05 	call	0xa48	; 0xa48 <LEDUpdate>
     a80:	08 95       	ret

00000a82 <LEDEnable>:
	setHigh(PORTB, SPI_SS);
}

// Enable All Leds
void LEDEnable(){
	setLow(PORTC,LED_OE);
     a82:	a9 98       	cbi	0x15, 1	; 21
     a84:	08 95       	ret

00000a86 <LEDVoltage>:
}

// Get a ADC value for battery and decode for Led's 
void LEDVoltage(){
	
	int ADCValue = AdcConvert(3);
     a86:	83 e0       	ldi	r24, 0x03	; 3
     a88:	0e 94 50 00 	call	0xa0	; 0xa0 <AdcConvert>

	if(ADCValue >= 845){
     a8c:	8d 34       	cpi	r24, 0x4D	; 77
     a8e:	23 e0       	ldi	r18, 0x03	; 3
     a90:	92 07       	cpc	r25, r18
     a92:	34 f0       	brlt	.+12     	; 0xaa0 <LEDVoltage+0x1a>
Blue left	246		3
blue right	222		5 */

void LEDChangeLed(uint8_t bank, uint8_t data){
	if(bank == 0){
		ledBank0 = data;
     a94:	8f ef       	ldi	r24, 0xFF	; 255
     a96:	80 93 06 01 	sts	0x0106, r24
	}
	if(bank == 1){
		ledBank1 = data;
	}
	LEDUpdate();
     a9a:	0e 94 24 05 	call	0xa48	; 0xa48 <LEDUpdate>
     a9e:	49 c0       	rjmp	.+146    	; 0xb32 <LEDVoltage+0xac>
	int ADCValue = AdcConvert(3);

	if(ADCValue >= 845){
		LEDChangeLed(0,255);
	}
	else if(815<=ADCValue){
     aa0:	8f 32       	cpi	r24, 0x2F	; 47
     aa2:	23 e0       	ldi	r18, 0x03	; 3
     aa4:	92 07       	cpc	r25, r18
     aa6:	34 f0       	brlt	.+12     	; 0xab4 <LEDVoltage+0x2e>
Blue left	246		3
blue right	222		5 */

void LEDChangeLed(uint8_t bank, uint8_t data){
	if(bank == 0){
		ledBank0 = data;
     aa8:	8f e7       	ldi	r24, 0x7F	; 127
     aaa:	80 93 06 01 	sts	0x0106, r24
	}
	if(bank == 1){
		ledBank1 = data;
	}
	LEDUpdate();
     aae:	0e 94 24 05 	call	0xa48	; 0xa48 <LEDUpdate>
     ab2:	3f c0       	rjmp	.+126    	; 0xb32 <LEDVoltage+0xac>
		LEDChangeLed(0,255);
	}
	else if(815<=ADCValue){
		LEDChangeLed(0,127);
	}
	else if(779<=ADCValue){
     ab4:	8b 30       	cpi	r24, 0x0B	; 11
     ab6:	23 e0       	ldi	r18, 0x03	; 3
     ab8:	92 07       	cpc	r25, r18
     aba:	34 f0       	brlt	.+12     	; 0xac8 <LEDVoltage+0x42>
Blue left	246		3
blue right	222		5 */

void LEDChangeLed(uint8_t bank, uint8_t data){
	if(bank == 0){
		ledBank0 = data;
     abc:	8f e3       	ldi	r24, 0x3F	; 63
     abe:	80 93 06 01 	sts	0x0106, r24
	}
	if(bank == 1){
		ledBank1 = data;
	}
	LEDUpdate();
     ac2:	0e 94 24 05 	call	0xa48	; 0xa48 <LEDUpdate>
     ac6:	35 c0       	rjmp	.+106    	; 0xb32 <LEDVoltage+0xac>
		LEDChangeLed(0,127);
	}
	else if(779<=ADCValue){
		LEDChangeLed(0,63);
	}
	else if(745<=ADCValue){
     ac8:	89 3e       	cpi	r24, 0xE9	; 233
     aca:	22 e0       	ldi	r18, 0x02	; 2
     acc:	92 07       	cpc	r25, r18
     ace:	34 f0       	brlt	.+12     	; 0xadc <LEDVoltage+0x56>
Blue left	246		3
blue right	222		5 */

void LEDChangeLed(uint8_t bank, uint8_t data){
	if(bank == 0){
		ledBank0 = data;
     ad0:	8f e1       	ldi	r24, 0x1F	; 31
     ad2:	80 93 06 01 	sts	0x0106, r24
	}
	if(bank == 1){
		ledBank1 = data;
	}
	LEDUpdate();
     ad6:	0e 94 24 05 	call	0xa48	; 0xa48 <LEDUpdate>
     ada:	2b c0       	rjmp	.+86     	; 0xb32 <LEDVoltage+0xac>
		LEDChangeLed(0,63);
	}
	else if(745<=ADCValue){
		LEDChangeLed(0,31);
	}
	else if(710<=ADCValue){
     adc:	86 3c       	cpi	r24, 0xC6	; 198
     ade:	22 e0       	ldi	r18, 0x02	; 2
     ae0:	92 07       	cpc	r25, r18
     ae2:	34 f0       	brlt	.+12     	; 0xaf0 <LEDVoltage+0x6a>
Blue left	246		3
blue right	222		5 */

void LEDChangeLed(uint8_t bank, uint8_t data){
	if(bank == 0){
		ledBank0 = data;
     ae4:	8f e0       	ldi	r24, 0x0F	; 15
     ae6:	80 93 06 01 	sts	0x0106, r24
	}
	if(bank == 1){
		ledBank1 = data;
	}
	LEDUpdate();
     aea:	0e 94 24 05 	call	0xa48	; 0xa48 <LEDUpdate>
     aee:	21 c0       	rjmp	.+66     	; 0xb32 <LEDVoltage+0xac>
		LEDChangeLed(0,31);
	}
	else if(710<=ADCValue){
		LEDChangeLed(0,15);
	}
	else if(680<=ADCValue){
     af0:	88 3a       	cpi	r24, 0xA8	; 168
     af2:	22 e0       	ldi	r18, 0x02	; 2
     af4:	92 07       	cpc	r25, r18
     af6:	34 f0       	brlt	.+12     	; 0xb04 <LEDVoltage+0x7e>
Blue left	246		3
blue right	222		5 */

void LEDChangeLed(uint8_t bank, uint8_t data){
	if(bank == 0){
		ledBank0 = data;
     af8:	87 e0       	ldi	r24, 0x07	; 7
     afa:	80 93 06 01 	sts	0x0106, r24
	}
	if(bank == 1){
		ledBank1 = data;
	}
	LEDUpdate();
     afe:	0e 94 24 05 	call	0xa48	; 0xa48 <LEDUpdate>
     b02:	17 c0       	rjmp	.+46     	; 0xb32 <LEDVoltage+0xac>
		LEDChangeLed(0,15);
	}
	else if(680<=ADCValue){
		LEDChangeLed(0,7);
	}
	else if(644<=ADCValue){
     b04:	84 38       	cpi	r24, 0x84	; 132
     b06:	22 e0       	ldi	r18, 0x02	; 2
     b08:	92 07       	cpc	r25, r18
     b0a:	34 f0       	brlt	.+12     	; 0xb18 <LEDVoltage+0x92>
Blue left	246		3
blue right	222		5 */

void LEDChangeLed(uint8_t bank, uint8_t data){
	if(bank == 0){
		ledBank0 = data;
     b0c:	83 e0       	ldi	r24, 0x03	; 3
     b0e:	80 93 06 01 	sts	0x0106, r24
	}
	if(bank == 1){
		ledBank1 = data;
	}
	LEDUpdate();
     b12:	0e 94 24 05 	call	0xa48	; 0xa48 <LEDUpdate>
     b16:	0d c0       	rjmp	.+26     	; 0xb32 <LEDVoltage+0xac>
		LEDChangeLed(0,7);
	}
	else if(644<=ADCValue){
		LEDChangeLed(0,3);
	}
	else if(607<=ADCValue){
     b18:	8f 35       	cpi	r24, 0x5F	; 95
     b1a:	92 40       	sbci	r25, 0x02	; 2
     b1c:	34 f0       	brlt	.+12     	; 0xb2a <LEDVoltage+0xa4>
Blue left	246		3
blue right	222		5 */

void LEDChangeLed(uint8_t bank, uint8_t data){
	if(bank == 0){
		ledBank0 = data;
     b1e:	81 e0       	ldi	r24, 0x01	; 1
     b20:	80 93 06 01 	sts	0x0106, r24
	}
	if(bank == 1){
		ledBank1 = data;
	}
	LEDUpdate();
     b24:	0e 94 24 05 	call	0xa48	; 0xa48 <LEDUpdate>
     b28:	04 c0       	rjmp	.+8      	; 0xb32 <LEDVoltage+0xac>
Blue left	246		3
blue right	222		5 */

void LEDChangeLed(uint8_t bank, uint8_t data){
	if(bank == 0){
		ledBank0 = data;
     b2a:	10 92 06 01 	sts	0x0106, r1
	}
	if(bank == 1){
		ledBank1 = data;
	}
	LEDUpdate();
     b2e:	0e 94 24 05 	call	0xa48	; 0xa48 <LEDUpdate>
		LEDChangeLed(0,1);
	}
	else{
		LEDChangeLed(0,0);
	}
	LEDUpdate();
     b32:	0e 94 24 05 	call	0xa48	; 0xa48 <LEDUpdate>
     b36:	08 95       	ret

00000b38 <changeColor>:
	static volatile uint8_t red = 0;
	static volatile uint8_t green = 0;
	static volatile uint8_t blue = 0;
	static volatile uint8_t color = 0;

	switch(color){
     b38:	e0 91 fd 00 	lds	r30, 0x00FD
     b3c:	8e 2f       	mov	r24, r30
     b3e:	90 e0       	ldi	r25, 0x00	; 0
     b40:	87 30       	cpi	r24, 0x07	; 7
     b42:	91 05       	cpc	r25, r1
     b44:	08 f0       	brcs	.+2      	; 0xb48 <changeColor+0x10>
     b46:	65 c0       	rjmp	.+202    	; 0xc12 <changeColor+0xda>
     b48:	fc 01       	movw	r30, r24
     b4a:	e6 5d       	subi	r30, 0xD6	; 214
     b4c:	ff 4f       	sbci	r31, 0xFF	; 255
     b4e:	0c 94 dc 0c 	jmp	0x19b8	; 0x19b8 <__tablejump2__>

		// First step, add Red, only once.
		case 0:
		if(red != 15){
     b52:	80 91 fc 00 	lds	r24, 0x00FC
     b56:	8f 30       	cpi	r24, 0x0F	; 15
     b58:	31 f0       	breq	.+12     	; 0xb66 <changeColor+0x2e>
			red++;
     b5a:	80 91 fc 00 	lds	r24, 0x00FC
     b5e:	8f 5f       	subi	r24, 0xFF	; 255
     b60:	80 93 fc 00 	sts	0x00FC, r24
			break;
     b64:	56 c0       	rjmp	.+172    	; 0xc12 <changeColor+0xda>
		}else{
			color = 1;	
     b66:	81 e0       	ldi	r24, 0x01	; 1
     b68:	80 93 fd 00 	sts	0x00FD, r24
		}
			
		// Add Green
		case 1:
		if(green != 15){
     b6c:	80 91 fb 00 	lds	r24, 0x00FB
     b70:	8f 30       	cpi	r24, 0x0F	; 15
     b72:	31 f0       	breq	.+12     	; 0xb80 <changeColor+0x48>
			green++;
     b74:	80 91 fb 00 	lds	r24, 0x00FB
     b78:	8f 5f       	subi	r24, 0xFF	; 255
     b7a:	80 93 fb 00 	sts	0x00FB, r24
			break;
     b7e:	49 c0       	rjmp	.+146    	; 0xc12 <changeColor+0xda>
		}else{
			color = 2;
     b80:	82 e0       	ldi	r24, 0x02	; 2
     b82:	80 93 fd 00 	sts	0x00FD, r24
			break;
     b86:	45 c0       	rjmp	.+138    	; 0xc12 <changeColor+0xda>
		}
		
		// Remove Red
		case 2:
		if(red != 0){
     b88:	80 91 fc 00 	lds	r24, 0x00FC
     b8c:	88 23       	and	r24, r24
     b8e:	31 f0       	breq	.+12     	; 0xb9c <changeColor+0x64>
			red--;
     b90:	80 91 fc 00 	lds	r24, 0x00FC
     b94:	81 50       	subi	r24, 0x01	; 1
     b96:	80 93 fc 00 	sts	0x00FC, r24
			break;
     b9a:	3b c0       	rjmp	.+118    	; 0xc12 <changeColor+0xda>
		}else{
			color = 3;
     b9c:	83 e0       	ldi	r24, 0x03	; 3
     b9e:	80 93 fd 00 	sts	0x00FD, r24
			break;
     ba2:	37 c0       	rjmp	.+110    	; 0xc12 <changeColor+0xda>
		}

		// Add blue
		case 3:
		if(blue != 15){
     ba4:	80 91 fa 00 	lds	r24, 0x00FA
     ba8:	8f 30       	cpi	r24, 0x0F	; 15
     baa:	31 f0       	breq	.+12     	; 0xbb8 <changeColor+0x80>
			blue++;
     bac:	80 91 fa 00 	lds	r24, 0x00FA
     bb0:	8f 5f       	subi	r24, 0xFF	; 255
     bb2:	80 93 fa 00 	sts	0x00FA, r24
			break;
     bb6:	2d c0       	rjmp	.+90     	; 0xc12 <changeColor+0xda>
		}else{
			color = 4;
     bb8:	84 e0       	ldi	r24, 0x04	; 4
     bba:	80 93 fd 00 	sts	0x00FD, r24
			break;
     bbe:	29 c0       	rjmp	.+82     	; 0xc12 <changeColor+0xda>
		}

		// Remove Green
		case 4:
		if(green != 0){
     bc0:	80 91 fb 00 	lds	r24, 0x00FB
     bc4:	88 23       	and	r24, r24
     bc6:	31 f0       	breq	.+12     	; 0xbd4 <changeColor+0x9c>
			green--;
     bc8:	80 91 fb 00 	lds	r24, 0x00FB
     bcc:	81 50       	subi	r24, 0x01	; 1
     bce:	80 93 fb 00 	sts	0x00FB, r24
			break;
     bd2:	1f c0       	rjmp	.+62     	; 0xc12 <changeColor+0xda>
		}else{
			color = 5;
     bd4:	85 e0       	ldi	r24, 0x05	; 5
     bd6:	80 93 fd 00 	sts	0x00FD, r24
			break;
     bda:	1b c0       	rjmp	.+54     	; 0xc12 <changeColor+0xda>
		}
		
		// Add Red
		case 5:
		if(red != 15){
     bdc:	80 91 fc 00 	lds	r24, 0x00FC
     be0:	8f 30       	cpi	r24, 0x0F	; 15
     be2:	31 f0       	breq	.+12     	; 0xbf0 <changeColor+0xb8>
			red++;
     be4:	80 91 fc 00 	lds	r24, 0x00FC
     be8:	8f 5f       	subi	r24, 0xFF	; 255
     bea:	80 93 fc 00 	sts	0x00FC, r24
			break;
     bee:	11 c0       	rjmp	.+34     	; 0xc12 <changeColor+0xda>
		}else{
			color = 6;
     bf0:	86 e0       	ldi	r24, 0x06	; 6
     bf2:	80 93 fd 00 	sts	0x00FD, r24
			break;
     bf6:	0d c0       	rjmp	.+26     	; 0xc12 <changeColor+0xda>
		}
		
		// Remove blue
		case 6:
		if(blue != 0){
     bf8:	80 91 fa 00 	lds	r24, 0x00FA
     bfc:	88 23       	and	r24, r24
     bfe:	31 f0       	breq	.+12     	; 0xc0c <changeColor+0xd4>
			blue--;
     c00:	80 91 fa 00 	lds	r24, 0x00FA
     c04:	81 50       	subi	r24, 0x01	; 1
     c06:	80 93 fa 00 	sts	0x00FA, r24
			break;
     c0a:	03 c0       	rjmp	.+6      	; 0xc12 <changeColor+0xda>
		}else{
			color = 1;
     c0c:	81 e0       	ldi	r24, 0x01	; 1
     c0e:	80 93 fd 00 	sts	0x00FD, r24
			break;
		}
	}

	RGB[0][0] = red;
     c12:	80 91 fc 00 	lds	r24, 0x00FC
     c16:	e0 e0       	ldi	r30, 0x00	; 0
     c18:	f1 e0       	ldi	r31, 0x01	; 1
     c1a:	80 83       	st	Z, r24
	RGB[1][0] = red;
     c1c:	80 91 fc 00 	lds	r24, 0x00FC
     c20:	83 83       	std	Z+3, r24	; 0x03
	RGB[0][1] = green;
     c22:	80 91 fb 00 	lds	r24, 0x00FB
     c26:	81 83       	std	Z+1, r24	; 0x01
	RGB[1][1] = green;
     c28:	80 91 fb 00 	lds	r24, 0x00FB
     c2c:	84 83       	std	Z+4, r24	; 0x04
	RGB[0][2] = blue;
     c2e:	80 91 fa 00 	lds	r24, 0x00FA
     c32:	82 83       	std	Z+2, r24	; 0x02
	RGB[1][2] = blue;
     c34:	80 91 fa 00 	lds	r24, 0x00FA
     c38:	85 83       	std	Z+5, r24	; 0x05
     c3a:	08 95       	ret

00000c3c <calcPWM>:

// Set the duty cycle for the leds
void calcPWM(){

	// Red Left
	if(RGB[0][0] <= pwm){
     c3c:	80 91 ff 00 	lds	r24, 0x00FF
     c40:	90 91 00 01 	lds	r25, 0x0100
     c44:	89 17       	cp	r24, r25
     c46:	30 f0       	brcs	.+12     	; 0xc54 <calcPWM+0x18>
		ledBank1 |= (1<<1); //off
     c48:	80 91 67 00 	lds	r24, 0x0067
     c4c:	82 60       	ori	r24, 0x02	; 2
     c4e:	80 93 67 00 	sts	0x0067, r24
     c52:	05 c0       	rjmp	.+10     	; 0xc5e <calcPWM+0x22>
	}else{
		ledBank1 &= ~(1<<1); //on
     c54:	80 91 67 00 	lds	r24, 0x0067
     c58:	8d 7f       	andi	r24, 0xFD	; 253
     c5a:	80 93 67 00 	sts	0x0067, r24
	}
	
	// Green Left
	if(RGB[0][1] <= pwm){
     c5e:	80 91 ff 00 	lds	r24, 0x00FF
     c62:	90 91 01 01 	lds	r25, 0x0101
     c66:	89 17       	cp	r24, r25
     c68:	30 f0       	brcs	.+12     	; 0xc76 <calcPWM+0x3a>
		ledBank1 |= (1<<2);
     c6a:	80 91 67 00 	lds	r24, 0x0067
     c6e:	84 60       	ori	r24, 0x04	; 4
     c70:	80 93 67 00 	sts	0x0067, r24
     c74:	05 c0       	rjmp	.+10     	; 0xc80 <calcPWM+0x44>
	}else{
		ledBank1 &= ~(1<<2);
     c76:	80 91 67 00 	lds	r24, 0x0067
     c7a:	8b 7f       	andi	r24, 0xFB	; 251
     c7c:	80 93 67 00 	sts	0x0067, r24
	}

	// Blue Left
	if(RGB[0][2] <= pwm){
     c80:	80 91 ff 00 	lds	r24, 0x00FF
     c84:	90 91 02 01 	lds	r25, 0x0102
     c88:	89 17       	cp	r24, r25
     c8a:	30 f0       	brcs	.+12     	; 0xc98 <calcPWM+0x5c>
		ledBank1 |= (1<<3);
     c8c:	80 91 67 00 	lds	r24, 0x0067
     c90:	88 60       	ori	r24, 0x08	; 8
     c92:	80 93 67 00 	sts	0x0067, r24
     c96:	05 c0       	rjmp	.+10     	; 0xca2 <calcPWM+0x66>
	}else{
		ledBank1 &= ~(1<<3);
     c98:	80 91 67 00 	lds	r24, 0x0067
     c9c:	87 7f       	andi	r24, 0xF7	; 247
     c9e:	80 93 67 00 	sts	0x0067, r24
	}
	
	// Red Right
	if(RGB[1][0] <= pwm){
     ca2:	80 91 ff 00 	lds	r24, 0x00FF
     ca6:	90 91 03 01 	lds	r25, 0x0103
     caa:	89 17       	cp	r24, r25
     cac:	30 f0       	brcs	.+12     	; 0xcba <calcPWM+0x7e>
		ledBank1 |= (1<<7);
     cae:	80 91 67 00 	lds	r24, 0x0067
     cb2:	80 68       	ori	r24, 0x80	; 128
     cb4:	80 93 67 00 	sts	0x0067, r24
     cb8:	05 c0       	rjmp	.+10     	; 0xcc4 <calcPWM+0x88>
	}else{
		ledBank1 &= ~(1<<7);
     cba:	80 91 67 00 	lds	r24, 0x0067
     cbe:	8f 77       	andi	r24, 0x7F	; 127
     cc0:	80 93 67 00 	sts	0x0067, r24
	}

	// Green Right
	if(RGB[1][1] <= pwm){
     cc4:	80 91 ff 00 	lds	r24, 0x00FF
     cc8:	90 91 04 01 	lds	r25, 0x0104
     ccc:	89 17       	cp	r24, r25
     cce:	30 f0       	brcs	.+12     	; 0xcdc <calcPWM+0xa0>
		ledBank1 |= (1<<6);
     cd0:	80 91 67 00 	lds	r24, 0x0067
     cd4:	80 64       	ori	r24, 0x40	; 64
     cd6:	80 93 67 00 	sts	0x0067, r24
     cda:	05 c0       	rjmp	.+10     	; 0xce6 <calcPWM+0xaa>
	}else{
		ledBank1 &= ~(1<<6);
     cdc:	80 91 67 00 	lds	r24, 0x0067
     ce0:	8f 7b       	andi	r24, 0xBF	; 191
     ce2:	80 93 67 00 	sts	0x0067, r24
	}

	// Blue Right
	if(RGB[1][2] <= pwm){
     ce6:	80 91 ff 00 	lds	r24, 0x00FF
     cea:	90 91 05 01 	lds	r25, 0x0105
     cee:	89 17       	cp	r24, r25
     cf0:	30 f0       	brcs	.+12     	; 0xcfe <calcPWM+0xc2>
		ledBank1 |= (1<<5);
     cf2:	80 91 67 00 	lds	r24, 0x0067
     cf6:	80 62       	ori	r24, 0x20	; 32
     cf8:	80 93 67 00 	sts	0x0067, r24
     cfc:	08 95       	ret
	}else{
		ledBank1 &= ~(1<<5);
     cfe:	80 91 67 00 	lds	r24, 0x0067
     d02:	8f 7d       	andi	r24, 0xDF	; 223
     d04:	80 93 67 00 	sts	0x0067, r24
     d08:	08 95       	ret

00000d0a <__vector_4>:

/////////////////////////////////////////////////////////////////////////
//                       Interrupt service routines                    //
/////////////////////////////////////////////////////////////////////////

ISR(TIMER2_COMP_vect){
     d0a:	1f 92       	push	r1
     d0c:	0f 92       	push	r0
     d0e:	0f b6       	in	r0, 0x3f	; 63
     d10:	0f 92       	push	r0
     d12:	11 24       	eor	r1, r1
     d14:	2f 93       	push	r18
     d16:	3f 93       	push	r19
     d18:	4f 93       	push	r20
     d1a:	5f 93       	push	r21
     d1c:	6f 93       	push	r22
     d1e:	7f 93       	push	r23
     d20:	8f 93       	push	r24
     d22:	9f 93       	push	r25
     d24:	af 93       	push	r26
     d26:	bf 93       	push	r27
     d28:	ef 93       	push	r30
     d2a:	ff 93       	push	r31

	// PWM  count 0-15
	pwm++;
     d2c:	80 91 ff 00 	lds	r24, 0x00FF
     d30:	8f 5f       	subi	r24, 0xFF	; 255
     d32:	80 93 ff 00 	sts	0x00FF, r24
	if(pwm > 15){
     d36:	80 91 ff 00 	lds	r24, 0x00FF
     d3a:	80 31       	cpi	r24, 0x10	; 16
     d3c:	10 f0       	brcs	.+4      	; 0xd42 <__vector_4+0x38>
		pwm = 0;
     d3e:	10 92 ff 00 	sts	0x00FF, r1
	}
	
	// Set new values for LED's
	counter++;
     d42:	80 91 fe 00 	lds	r24, 0x00FE
     d46:	8f 5f       	subi	r24, 0xFF	; 255
     d48:	80 93 fe 00 	sts	0x00FE, r24
	if(counter == 100){
     d4c:	80 91 fe 00 	lds	r24, 0x00FE
     d50:	84 36       	cpi	r24, 0x64	; 100
     d52:	21 f4       	brne	.+8      	; 0xd5c <__vector_4+0x52>
		counter = 0;
     d54:	10 92 fe 00 	sts	0x00FE, r1
		changeColor();
     d58:	0e 94 9c 05 	call	0xb38	; 0xb38 <changeColor>
	}	

	// Update all LED's
	calcPWM();
     d5c:	0e 94 1e 06 	call	0xc3c	; 0xc3c <calcPWM>
	LEDUpdate();
     d60:	0e 94 24 05 	call	0xa48	; 0xa48 <LEDUpdate>
}
     d64:	ff 91       	pop	r31
     d66:	ef 91       	pop	r30
     d68:	bf 91       	pop	r27
     d6a:	af 91       	pop	r26
     d6c:	9f 91       	pop	r25
     d6e:	8f 91       	pop	r24
     d70:	7f 91       	pop	r23
     d72:	6f 91       	pop	r22
     d74:	5f 91       	pop	r21
     d76:	4f 91       	pop	r20
     d78:	3f 91       	pop	r19
     d7a:	2f 91       	pop	r18
     d7c:	0f 90       	pop	r0
     d7e:	0f be       	out	0x3f, r0	; 63
     d80:	0f 90       	pop	r0
     d82:	1f 90       	pop	r1
     d84:	18 95       	reti

00000d86 <setStopFlag>:
/////////////////////////////////////////////////////////////////////////
//                       Public functions                              //
/////////////////////////////////////////////////////////////////////////

void setStopFlag(uint8_t flag){
	stopFlag = flag;
     d86:	80 93 09 01 	sts	0x0109, r24
     d8a:	08 95       	ret

00000d8c <setFoundLineFlag>:
}

void setFoundLineFlag(uint8_t flag){
	foundLineFlag = flag;
     d8c:	80 93 08 01 	sts	0x0108, r24
     d90:	08 95       	ret

00000d92 <setLostLineFlag>:
}

void setLostLineFlag(uint8_t flag){
	lostLineFlag = flag;
     d92:	80 93 07 01 	sts	0x0107, r24
     d96:	08 95       	ret

00000d98 <getFoundLineFlag>:
	return stopFlag;
}

uint8_t getFoundLineFlag(){
	return foundLineFlag;
}
     d98:	80 91 08 01 	lds	r24, 0x0108
     d9c:	08 95       	ret

00000d9e <go>:
// Drive the Robot certain distance or turn left/right
// dist = 1100 aprox 360
// direction = 0 Straight, 1 Left, 2 Right
// ref = 0-17 Speed.
// Does not compensate for overshoot, slow speed better.
void go(signed int distance, uint8_t direction, uint8_t currentSpeed){
     d9e:	9f 92       	push	r9
     da0:	af 92       	push	r10
     da2:	bf 92       	push	r11
     da4:	cf 92       	push	r12
     da6:	df 92       	push	r13
     da8:	ef 92       	push	r14
     daa:	ff 92       	push	r15
     dac:	0f 93       	push	r16
     dae:	1f 93       	push	r17
     db0:	cf 93       	push	r28
     db2:	df 93       	push	r29
     db4:	5c 01       	movw	r10, r24
     db6:	c4 2e       	mov	r12, r20
	// Boolean
	uint8_t hasLeftFinished  = false;
	uint8_t hasRightFinished = false;

	// Change direction.
	if(direction == DIRECTION_STRAIGHT)
     db8:	61 11       	cpse	r22, r1
     dba:	07 c0       	rjmp	.+14     	; 0xdca <go+0x2c>
	{
		setDirectionMotorL(MOTOR_FORWARD);
     dbc:	80 e0       	ldi	r24, 0x00	; 0
     dbe:	0e 94 88 08 	call	0x1110	; 0x1110 <setDirectionMotorL>
		setDirectionMotorR(MOTOR_FORWARD);
     dc2:	80 e0       	ldi	r24, 0x00	; 0
     dc4:	0e 94 94 08 	call	0x1128	; 0x1128 <setDirectionMotorR>
     dc8:	11 c0       	rjmp	.+34     	; 0xdec <go+0x4e>
	}
	if(direction == DIRECTION_LEFT)
     dca:	61 30       	cpi	r22, 0x01	; 1
     dcc:	39 f4       	brne	.+14     	; 0xddc <go+0x3e>
	{
		setDirectionMotorL(MOTOR_REVERSE);
     dce:	81 e0       	ldi	r24, 0x01	; 1
     dd0:	0e 94 88 08 	call	0x1110	; 0x1110 <setDirectionMotorL>
		setDirectionMotorR(MOTOR_FORWARD);
     dd4:	80 e0       	ldi	r24, 0x00	; 0
     dd6:	0e 94 94 08 	call	0x1128	; 0x1128 <setDirectionMotorR>
     dda:	08 c0       	rjmp	.+16     	; 0xdec <go+0x4e>
	}
	if(direction == DIRECTION_RIGHT)
     ddc:	62 30       	cpi	r22, 0x02	; 2
     dde:	31 f4       	brne	.+12     	; 0xdec <go+0x4e>
	{
		setDirectionMotorL(MOTOR_FORWARD);
     de0:	80 e0       	ldi	r24, 0x00	; 0
     de2:	0e 94 88 08 	call	0x1110	; 0x1110 <setDirectionMotorL>
		setDirectionMotorR(MOTOR_REVERSE);
     de6:	81 e0       	ldi	r24, 0x01	; 1
     de8:	0e 94 94 08 	call	0x1128	; 0x1128 <setDirectionMotorR>
				hasLeftFinished = true;
				setDutyCycleMotorL(0);
			}

			if(pulsesTravelledRight >= distance){
				hasRightFinished = true;
     dec:	d0 e0       	ldi	r29, 0x00	; 0
     dee:	c0 e0       	ldi	r28, 0x00	; 0
     df0:	e1 2c       	mov	r14, r1
     df2:	f1 2c       	mov	r15, r1
     df4:	00 e0       	ldi	r16, 0x00	; 0
     df6:	10 e0       	ldi	r17, 0x00	; 0

			// Difference between Wheels
			differenceBetweenLeftAndRightPulses = pulsesTravelledLeft - pulsesTravelledRight;

			// Calculate and set new dutyCycle.
			calcDuty(currentSpeed, differenceBetweenLeftAndRightPulses);
     df8:	d1 2c       	mov	r13, r1
			
			// Finished ?
			if(pulsesTravelledLeft >= distance){
				hasLeftFinished = true;
     dfa:	99 24       	eor	r9, r9
     dfc:	93 94       	inc	r9
     dfe:	2c c0       	rjmp	.+88     	; 0xe58 <go+0xba>
	}
		
	// Go the distance until finished.
	while(hasLeftFinished == false || hasRightFinished == false)
	{
		if(getSensorUpdateFlag())
     e00:	0e 94 6c 08 	call	0x10d8	; 0x10d8 <getSensorUpdateFlag>
     e04:	88 23       	and	r24, r24
     e06:	41 f1       	breq	.+80     	; 0xe58 <go+0xba>
		{
			pulsesTravelledRight += getSensorMotorR();
     e08:	0e 94 a3 08 	call	0x1146	; 0x1146 <getSensorMotorR>
     e0c:	e8 0e       	add	r14, r24
     e0e:	f1 1c       	adc	r15, r1
			pulsesTravelledLeft  += getSensorMotorL();
     e10:	0e 94 a0 08 	call	0x1140	; 0x1140 <getSensorMotorL>
     e14:	08 0f       	add	r16, r24
     e16:	11 1d       	adc	r17, r1

			// Difference between Wheels
			differenceBetweenLeftAndRightPulses = pulsesTravelledLeft - pulsesTravelledRight;
     e18:	60 2f       	mov	r22, r16
     e1a:	6e 19       	sub	r22, r14

			// Calculate and set new dutyCycle.
			calcDuty(currentSpeed, differenceBetweenLeftAndRightPulses);
     e1c:	06 2e       	mov	r0, r22
     e1e:	00 0c       	add	r0, r0
     e20:	77 0b       	sbc	r23, r23
     e22:	88 0b       	sbc	r24, r24
     e24:	99 0b       	sbc	r25, r25
     e26:	0e 94 cf 0b 	call	0x179e	; 0x179e <__floatsisf>
     e2a:	ab 01       	movw	r20, r22
     e2c:	bc 01       	movw	r22, r24
     e2e:	c6 01       	movw	r24, r12
     e30:	0e 94 e0 08 	call	0x11c0	; 0x11c0 <calcDuty>
			
			// Finished ?
			if(pulsesTravelledLeft >= distance){
     e34:	0a 15       	cp	r16, r10
     e36:	1b 05       	cpc	r17, r11
     e38:	2c f0       	brlt	.+10     	; 0xe44 <go+0xa6>
				hasLeftFinished = true;
				setDutyCycleMotorL(0);
     e3a:	80 e0       	ldi	r24, 0x00	; 0
     e3c:	90 e0       	ldi	r25, 0x00	; 0
     e3e:	0e 94 7c 08 	call	0x10f8	; 0x10f8 <setDutyCycleMotorL>
			// Calculate and set new dutyCycle.
			calcDuty(currentSpeed, differenceBetweenLeftAndRightPulses);
			
			// Finished ?
			if(pulsesTravelledLeft >= distance){
				hasLeftFinished = true;
     e42:	c9 2d       	mov	r28, r9
				setDutyCycleMotorL(0);
			}

			if(pulsesTravelledRight >= distance){
     e44:	ea 14       	cp	r14, r10
     e46:	fb 04       	cpc	r15, r11
     e48:	2c f0       	brlt	.+10     	; 0xe54 <go+0xb6>
				hasRightFinished = true;
				setDutyCycleMotorR(0);
     e4a:	80 e0       	ldi	r24, 0x00	; 0
     e4c:	90 e0       	ldi	r25, 0x00	; 0
     e4e:	0e 94 82 08 	call	0x1104	; 0x1104 <setDutyCycleMotorR>
				hasLeftFinished = true;
				setDutyCycleMotorL(0);
			}

			if(pulsesTravelledRight >= distance){
				hasRightFinished = true;
     e52:	d9 2d       	mov	r29, r9
				setDutyCycleMotorR(0);
			}

			clearSensorUpdateFlag();
     e54:	0e 94 6f 08 	call	0x10de	; 0x10de <clearSensorUpdateFlag>
		setDirectionMotorL(MOTOR_FORWARD);
		setDirectionMotorR(MOTOR_REVERSE);
	}
		
	// Go the distance until finished.
	while(hasLeftFinished == false || hasRightFinished == false)
     e58:	cc 23       	and	r28, r28
     e5a:	91 f2       	breq	.-92     	; 0xe00 <go+0x62>
     e5c:	dd 23       	and	r29, r29
     e5e:	81 f2       	breq	.-96     	; 0xe00 <go+0x62>
			}

			clearSensorUpdateFlag();
		}
	}
}
     e60:	df 91       	pop	r29
     e62:	cf 91       	pop	r28
     e64:	1f 91       	pop	r17
     e66:	0f 91       	pop	r16
     e68:	ff 90       	pop	r15
     e6a:	ef 90       	pop	r14
     e6c:	df 90       	pop	r13
     e6e:	cf 90       	pop	r12
     e70:	bf 90       	pop	r11
     e72:	af 90       	pop	r10
     e74:	9f 90       	pop	r9
     e76:	08 95       	ret

00000e78 <searchMode>:
uint8_t getFoundLineFlag(){
	return foundLineFlag;
}


void searchMode(){
     e78:	1f 93       	push	r17
     e7a:	cf 93       	push	r28
     e7c:	df 93       	push	r29
	
	uint8_t a = 0;
     e7e:	c0 e0       	ldi	r28, 0x00	; 0
		switch(a)
		{
			case 0:
			// Drive a little bit forward.
			go(150,DIRECTION_STRAIGHT,SPEED_CREEP);
			a = 1;
     e80:	d1 e0       	ldi	r29, 0x01	; 1
			break;

			// Scan left
			case 2:
			go(200,DIRECTION_LEFT,SPEED_CREEP);
			a = 3;
     e82:	13 e0       	ldi	r17, 0x03	; 3

void searchMode(){
	
	uint8_t a = 0;
	
	while(readFloorSensors() == 0)
     e84:	27 c0       	rjmp	.+78     	; 0xed4 <searchMode+0x5c>
	{
		switch(a)
     e86:	c1 30       	cpi	r28, 0x01	; 1
     e88:	71 f0       	breq	.+28     	; 0xea6 <searchMode+0x2e>
     e8a:	28 f0       	brcs	.+10     	; 0xe96 <searchMode+0x1e>
     e8c:	c2 30       	cpi	r28, 0x02	; 2
     e8e:	99 f0       	breq	.+38     	; 0xeb6 <searchMode+0x3e>
     e90:	c3 30       	cpi	r28, 0x03	; 3
     e92:	c9 f0       	breq	.+50     	; 0xec6 <searchMode+0x4e>
     e94:	1f c0       	rjmp	.+62     	; 0xed4 <searchMode+0x5c>
		{
			case 0:
			// Drive a little bit forward.
			go(150,DIRECTION_STRAIGHT,SPEED_CREEP);
     e96:	42 e0       	ldi	r20, 0x02	; 2
     e98:	60 e0       	ldi	r22, 0x00	; 0
     e9a:	86 e9       	ldi	r24, 0x96	; 150
     e9c:	90 e0       	ldi	r25, 0x00	; 0
     e9e:	0e 94 cf 06 	call	0xd9e	; 0xd9e <go>
			a = 1;
     ea2:	cd 2f       	mov	r28, r29
			break;
     ea4:	17 c0       	rjmp	.+46     	; 0xed4 <searchMode+0x5c>

			// Scan Right.
			case 1:
			go(100,DIRECTION_RIGHT,SPEED_CREEP);
     ea6:	42 e0       	ldi	r20, 0x02	; 2
     ea8:	62 e0       	ldi	r22, 0x02	; 2
     eaa:	84 e6       	ldi	r24, 0x64	; 100
     eac:	90 e0       	ldi	r25, 0x00	; 0
     eae:	0e 94 cf 06 	call	0xd9e	; 0xd9e <go>
			a = 2;
     eb2:	c2 e0       	ldi	r28, 0x02	; 2
			break;
     eb4:	0f c0       	rjmp	.+30     	; 0xed4 <searchMode+0x5c>

			// Scan left
			case 2:
			go(200,DIRECTION_LEFT,SPEED_CREEP);
     eb6:	42 e0       	ldi	r20, 0x02	; 2
     eb8:	6d 2f       	mov	r22, r29
     eba:	88 ec       	ldi	r24, 0xC8	; 200
     ebc:	90 e0       	ldi	r25, 0x00	; 0
     ebe:	0e 94 cf 06 	call	0xd9e	; 0xd9e <go>
			a = 3;
     ec2:	c1 2f       	mov	r28, r17
			break;
     ec4:	07 c0       	rjmp	.+14     	; 0xed4 <searchMode+0x5c>

			// Center again.
			case 3:
			go(105,DIRECTION_RIGHT,SPEED_CREEP);
     ec6:	42 e0       	ldi	r20, 0x02	; 2
     ec8:	62 e0       	ldi	r22, 0x02	; 2
     eca:	89 e6       	ldi	r24, 0x69	; 105
     ecc:	90 e0       	ldi	r25, 0x00	; 0
     ece:	0e 94 cf 06 	call	0xd9e	; 0xd9e <go>
			a = 0;
     ed2:	c0 e0       	ldi	r28, 0x00	; 0

void searchMode(){
	
	uint8_t a = 0;
	
	while(readFloorSensors() == 0)
     ed4:	0e 94 6f 03 	call	0x6de	; 0x6de <readFloorSensors>
     ed8:	88 23       	and	r24, r24
     eda:	a9 f2       	breq	.-86     	; 0xe86 <searchMode+0xe>
			a = 0;
			break;
		}	
	}
	
	setDirectionMotorL(0);
     edc:	80 e0       	ldi	r24, 0x00	; 0
     ede:	0e 94 88 08 	call	0x1110	; 0x1110 <setDirectionMotorL>
	setDirectionMotorR(0);
     ee2:	80 e0       	ldi	r24, 0x00	; 0
     ee4:	0e 94 94 08 	call	0x1128	; 0x1128 <setDirectionMotorR>
}
     ee8:	df 91       	pop	r29
     eea:	cf 91       	pop	r28
     eec:	1f 91       	pop	r17
     eee:	08 95       	ret

00000ef0 <runLine>:

// Run the IHK line
void runLine(){

	LCDClear();
     ef0:	0e 94 28 04 	call	0x850	; 0x850 <LCDClear>
	static const uint8_t forwardDirection = 0;
	
	// Start speed, current speed.
	uint8_t currentSpeed = SPEED_CREEP;

	setDirectionMotorL(forwardDirection);
     ef4:	80 e0       	ldi	r24, 0x00	; 0
     ef6:	0e 94 88 08 	call	0x1110	; 0x1110 <setDirectionMotorL>
	setDirectionMotorR(forwardDirection);
     efa:	80 e0       	ldi	r24, 0x00	; 0
     efc:	0e 94 94 08 	call	0x1128	; 0x1128 <setDirectionMotorR>

	// Run until end of track.
	while(stopFlag == FLAG_NOT_SET)
     f00:	35 c0       	rjmp	.+106    	; 0xf6c <runLine+0x7c>
	{
		if(getSensorUpdateFlag())
     f02:	0e 94 6c 08 	call	0x10d8	; 0x10d8 <getSensorUpdateFlag>
     f06:	88 23       	and	r24, r24
     f08:	89 f1       	breq	.+98     	; 0xf6c <runLine+0x7c>
		{
			// When a line is lost after driving straight, go in search mode
			if(lostLineFlag == FLAG_SET)
     f0a:	80 91 07 01 	lds	r24, 0x0107
     f0e:	81 30       	cpi	r24, 0x01	; 1
     f10:	21 f4       	brne	.+8      	; 0xf1a <runLine+0x2a>
			{
				searchMode();
     f12:	0e 94 3c 07 	call	0xe78	; 0xe78 <searchMode>
				lostLineFlag = FLAG_NOT_SET;
     f16:	10 92 07 01 	sts	0x0107, r1
			}

			// When line is found, make a Right turn
			// Increase speed and follow the line.
			if(foundLineFlag == FLAG_SET)
     f1a:	80 91 08 01 	lds	r24, 0x0108
     f1e:	81 30       	cpi	r24, 0x01	; 1
     f20:	81 f4       	brne	.+32     	; 0xf42 <runLine+0x52>
			{
				go(150,DIRECTION_RIGHT,SPEED_CREEP);
     f22:	42 e0       	ldi	r20, 0x02	; 2
     f24:	62 e0       	ldi	r22, 0x02	; 2
     f26:	86 e9       	ldi	r24, 0x96	; 150
     f28:	90 e0       	ldi	r25, 0x00	; 0
     f2a:	0e 94 cf 06 	call	0xd9e	; 0xd9e <go>
				setDirectionMotorL(forwardDirection);
     f2e:	80 e0       	ldi	r24, 0x00	; 0
     f30:	0e 94 88 08 	call	0x1110	; 0x1110 <setDirectionMotorL>
				setDirectionMotorR(forwardDirection);
     f34:	80 e0       	ldi	r24, 0x00	; 0
     f36:	0e 94 94 08 	call	0x1128	; 0x1128 <setDirectionMotorR>
				currentSpeed = SPEED_CREEP;
				foundLineFlag = FLAG_USED;
     f3a:	82 e0       	ldi	r24, 0x02	; 2
     f3c:	80 93 08 01 	sts	0x0108, r24
     f40:	02 c0       	rjmp	.+4      	; 0xf46 <runLine+0x56>
			}
		
			if (foundLineFlag == FLAG_USED)
     f42:	82 30       	cpi	r24, 0x02	; 2
     f44:	49 f4       	brne	.+18     	; 0xf58 <runLine+0x68>
			{
				uint16_t distance = AdcConvert(1);
     f46:	81 e0       	ldi	r24, 0x01	; 1
     f48:	0e 94 50 00 	call	0xa0	; 0xa0 <AdcConvert>
				
				if (distance > (uint16_t)500)
     f4c:	85 3f       	cpi	r24, 0xF5	; 245
     f4e:	91 40       	sbci	r25, 0x01	; 1
     f50:	18 f0       	brcs	.+6      	; 0xf58 <runLine+0x68>
/////////////////////////////////////////////////////////////////////////
//                       Public functions                              //
/////////////////////////////////////////////////////////////////////////

void setStopFlag(uint8_t flag){
	stopFlag = flag;
     f52:	81 e0       	ldi	r24, 0x01	; 1
     f54:	80 93 09 01 	sts	0x0109, r24
					setStopFlag(FLAG_SET);
				}
			}

			// Calculate and set new duty cycle.
			calcDuty(currentSpeed, calcFloorErrorAndFlagControl());
     f58:	0e 94 7c 03 	call	0x6f8	; 0x6f8 <calcFloorErrorAndFlagControl>
     f5c:	ab 01       	movw	r20, r22
     f5e:	bc 01       	movw	r22, r24
     f60:	82 e0       	ldi	r24, 0x02	; 2
     f62:	90 e0       	ldi	r25, 0x00	; 0
     f64:	0e 94 e0 08 	call	0x11c0	; 0x11c0 <calcDuty>

			clearSensorUpdateFlag();
     f68:	0e 94 6f 08 	call	0x10de	; 0x10de <clearSensorUpdateFlag>

	setDirectionMotorL(forwardDirection);
	setDirectionMotorR(forwardDirection);

	// Run until end of track.
	while(stopFlag == FLAG_NOT_SET)
     f6c:	80 91 09 01 	lds	r24, 0x0109
     f70:	88 23       	and	r24, r24
     f72:	39 f2       	breq	.-114    	; 0xf02 <runLine+0x12>
			clearSensorUpdateFlag();
		}
	}

	// Stop the robot at end mark.
	setDutyCycleMotorL(0);
     f74:	80 e0       	ldi	r24, 0x00	; 0
     f76:	90 e0       	ldi	r25, 0x00	; 0
     f78:	0e 94 7c 08 	call	0x10f8	; 0x10f8 <setDutyCycleMotorL>
	setDutyCycleMotorR(0);
     f7c:	80 e0       	ldi	r24, 0x00	; 0
     f7e:	90 e0       	ldi	r25, 0x00	; 0
     f80:	0e 94 82 08 	call	0x1104	; 0x1104 <setDutyCycleMotorR>
     f84:	08 95       	ret

00000f86 <test>:
		}
	}
}

// Count distance traveled in pulses and show on display.
void test(){
     f86:	cf 93       	push	r28
     f88:	df 93       	push	r29
     f8a:	cd b7       	in	r28, 0x3d	; 61
     f8c:	de b7       	in	r29, 0x3e	; 62
     f8e:	64 97       	sbiw	r28, 0x14	; 20
     f90:	0f b6       	in	r0, 0x3f	; 63
     f92:	f8 94       	cli
     f94:	de bf       	out	0x3e, r29	; 62
     f96:	0f be       	out	0x3f, r0	; 63
     f98:	cd bf       	out	0x3d, r28	; 61

	char buffer[20];	
	int pulseCountL = 0;
	int pulseCountR = 0;
     f9a:	e1 2c       	mov	r14, r1
     f9c:	f1 2c       	mov	r15, r1

// Count distance traveled in pulses and show on display.
void test(){

	char buffer[20];	
	int pulseCountL = 0;
     f9e:	00 e0       	ldi	r16, 0x00	; 0
     fa0:	10 e0       	ldi	r17, 0x00	; 0

			pulseCountL += getSensorMotorL();
			pulseCountR += getSensorMotorR();
		
			LCDGotoXY(0,0);
			sprintf(buffer, "%04i %04i %04i",pulseCountL,pulseCountR, (pulseCountL-pulseCountR));
     fa2:	0f 2e       	mov	r0, r31
     fa4:	f4 ee       	ldi	r31, 0xE4	; 228
     fa6:	af 2e       	mov	r10, r31
     fa8:	f0 e0       	ldi	r31, 0x00	; 0
     faa:	bf 2e       	mov	r11, r31
     fac:	f0 2d       	mov	r31, r0
     fae:	ce 01       	movw	r24, r28
     fb0:	01 96       	adiw	r24, 0x01	; 1
     fb2:	6c 01       	movw	r12, r24
	char buffer[20];	
	int pulseCountL = 0;
	int pulseCountR = 0;

	while(1){
		if(getSensorUpdateFlag()){
     fb4:	0e 94 6c 08 	call	0x10d8	; 0x10d8 <getSensorUpdateFlag>
     fb8:	88 23       	and	r24, r24
     fba:	e1 f3       	breq	.-8      	; 0xfb4 <test+0x2e>

			pulseCountL += getSensorMotorL();
     fbc:	0e 94 a0 08 	call	0x1140	; 0x1140 <getSensorMotorL>
     fc0:	08 0f       	add	r16, r24
     fc2:	11 1d       	adc	r17, r1
			pulseCountR += getSensorMotorR();
     fc4:	0e 94 a3 08 	call	0x1146	; 0x1146 <getSensorMotorR>
     fc8:	e8 0e       	add	r14, r24
     fca:	f1 1c       	adc	r15, r1
		
			LCDGotoXY(0,0);
     fcc:	60 e0       	ldi	r22, 0x00	; 0
     fce:	80 e0       	ldi	r24, 0x00	; 0
     fd0:	0e 94 3f 04 	call	0x87e	; 0x87e <LCDGotoXY>
			sprintf(buffer, "%04i %04i %04i",pulseCountL,pulseCountR, (pulseCountL-pulseCountR));
     fd4:	98 01       	movw	r18, r16
     fd6:	2e 19       	sub	r18, r14
     fd8:	3f 09       	sbc	r19, r15
     fda:	3f 93       	push	r19
     fdc:	2f 93       	push	r18
     fde:	ff 92       	push	r15
     fe0:	ef 92       	push	r14
     fe2:	1f 93       	push	r17
     fe4:	0f 93       	push	r16
     fe6:	bf 92       	push	r11
     fe8:	af 92       	push	r10
     fea:	df 92       	push	r13
     fec:	cf 92       	push	r12
     fee:	0e 94 f6 0c 	call	0x19ec	; 0x19ec <sprintf>
			LCDPutString(buffer);
     ff2:	c6 01       	movw	r24, r12
     ff4:	0e 94 7f 04 	call	0x8fe	; 0x8fe <LCDPutString>
			
			readFloorSensors();
     ff8:	0e 94 6f 03 	call	0x6de	; 0x6de <readFloorSensors>
			clearSensorUpdateFlag();
     ffc:	0e 94 6f 08 	call	0x10de	; 0x10de <clearSensorUpdateFlag>
    1000:	0f b6       	in	r0, 0x3f	; 63
    1002:	f8 94       	cli
    1004:	de bf       	out	0x3e, r29	; 62
    1006:	0f be       	out	0x3f, r0	; 63
    1008:	cd bf       	out	0x3d, r28	; 61
    100a:	d4 cf       	rjmp	.-88     	; 0xfb4 <test+0x2e>

0000100c <Initialize>:
	return 0;
}

void Initialize()
{
	initMotorControl();
    100c:	0e 94 3c 08 	call	0x1078	; 0x1078 <initMotorControl>
	initFloorSensor();
    1010:	0e 94 e4 02 	call	0x5c8	; 0x5c8 <initFloorSensor>
	LCDInit(16);
    1014:	80 e1       	ldi	r24, 0x10	; 16
    1016:	0e 94 8e 04 	call	0x91c	; 0x91c <LCDInit>
	LEDInit();
    101a:	0e 94 2f 05 	call	0xa5e	; 0xa5e <LEDInit>
	AdcInit();
    101e:	0e 94 58 00 	call	0xb0	; 0xb0 <AdcInit>
	USARTInit(31);
    1022:	8f e1       	ldi	r24, 0x1F	; 31
    1024:	90 e0       	ldi	r25, 0x00	; 0
    1026:	0e 94 f0 00 	call	0x1e0	; 0x1e0 <USARTInit>
	LEDEnable();
    102a:	0e 94 41 05 	call	0xa82	; 0xa82 <LEDEnable>
	enableHBridge();
    102e:	0e 94 6a 08 	call	0x10d4	; 0x10d4 <enableHBridge>
	SetInterrupt();
    1032:	78 94       	sei
    1034:	08 95       	ret

00001036 <main>:

void Initialize();

int main(void) {

	Initialize();
    1036:	0e 94 06 08 	call	0x100c	; 0x100c <Initialize>
	//LEDVoltage();
	buttonMenu();
    103a:	0e 94 93 02 	call	0x526	; 0x526 <buttonMenu>
		if(getRunLineFlag())
		{
			runLine();

			setRunLineFlag(true);
			setStopFlag(FLAG_NOT_SET);
    103e:	d8 ee       	ldi	r29, 0xE8	; 232
    1040:	c3 e0       	ldi	r28, 0x03	; 3
	buttonMenu();

	while(1)
	{
		// Update voltage LED's
		LEDVoltage();
    1042:	0e 94 43 05 	call	0xa86	; 0xa86 <LEDVoltage>
	
		if(getRunLineFlag())
    1046:	0e 94 08 01 	call	0x210	; 0x210 <getRunLineFlag>
    104a:	88 23       	and	r24, r24
    104c:	91 f0       	breq	.+36     	; 0x1072 <main+0x3c>
		{
			runLine();
    104e:	0e 94 78 07 	call	0xef0	; 0xef0 <runLine>

			setRunLineFlag(true);
    1052:	81 e0       	ldi	r24, 0x01	; 1
    1054:	0e 94 0b 01 	call	0x216	; 0x216 <setRunLineFlag>
			setStopFlag(FLAG_NOT_SET);
    1058:	80 e0       	ldi	r24, 0x00	; 0
    105a:	0e 94 c3 06 	call	0xd86	; 0xd86 <setStopFlag>
    105e:	8d 2f       	mov	r24, r29
    1060:	9c 2f       	mov	r25, r28
	#else
		//round up by default
		__ticks_dc = (uint32_t)(ceil(fabs(__tmp)));
	#endif

	__builtin_avr_delay_cycles(__ticks_dc);
    1062:	eb e4       	ldi	r30, 0x4B	; 75
    1064:	fd e1       	ldi	r31, 0x1D	; 29
    1066:	31 97       	sbiw	r30, 0x01	; 1
    1068:	f1 f7       	brne	.-4      	; 0x1066 <main+0x30>
    106a:	00 c0       	rjmp	.+0      	; 0x106c <main+0x36>
    106c:	00 00       	nop
    106e:	01 97       	sbiw	r24, 0x01	; 1

			for( int i = 0; i < 1000; i++)
    1070:	c1 f7       	brne	.-16     	; 0x1062 <main+0x2c>
			{
				_delay_ms(3);
			}
		}

		runObstacle();
    1072:	0e 94 07 0b 	call	0x160e	; 0x160e <runObstacle>
	}
    1076:	e5 cf       	rjmp	.-54     	; 0x1042 <main+0xc>

00001078 <initMotorControl>:

// Initialize the motor control.
void initMotorControl(void){

	// Set the directions.
	setOutput(DDRD, BRIDGE_A1);
    1078:	8d 9a       	sbi	0x11, 5	; 17
	setOutput(DDRD, BRIDGE_A2);
    107a:	8f 9a       	sbi	0x11, 7	; 17
	setOutput(DDRD, BRIDGE_A3);
    107c:	8c 9a       	sbi	0x11, 4	; 17
	setOutput(DDRD, BRIDGE_A4);
    107e:	8e 9a       	sbi	0x11, 6	; 17
	setOutput(DDRD, BRIDGE_EN);
    1080:	88 9a       	sbi	0x11, 0	; 17
	setInput(DDRD, MOTOR_L_A);
    1082:	8b 98       	cbi	0x11, 3	; 17
	setInput(DDRD, MOTOR_R_A);
    1084:	8a 98       	cbi	0x11, 2	; 17


	// Set the initial output values for outputs.
	setLow(PORTD, BRIDGE_A1);
    1086:	95 98       	cbi	0x12, 5	; 18
	setHigh(PORTD, BRIDGE_A2);
    1088:	97 9a       	sbi	0x12, 7	; 18
	setLow(PORTD, BRIDGE_A3);
    108a:	94 98       	cbi	0x12, 4	; 18
	setHigh(PORTD, BRIDGE_A4);
    108c:	96 9a       	sbi	0x12, 6	; 18
	setLow(PORTC, BRIDGE_EN);
    108e:	a8 98       	cbi	0x15, 0	; 21


	// Initilize Timer/counter 1
	TCCR1A = 0b10100010;
    1090:	82 ea       	ldi	r24, 0xA2	; 162
    1092:	8f bd       	out	0x2f, r24	; 47
	TCCR1B = 0b00011001;
    1094:	89 e1       	ldi	r24, 0x19	; 25
    1096:	8e bd       	out	0x2e, r24	; 46
	// Waveform generation mode (WGM) set to 14 (fast PWM TOP is ICR1)
	// Input capture noise canceler (ICNC1) disabled, Input capture Edge select (ICES1) set to falling edge.
	// NOTE: when ICR1 is set to TOP the input capture function is disabled thus ICES1 and ICNC1 are cleared.
	// no prescaler is used clk/1

	TCNT1 = 0; 		//reset counter1
    1098:	1d bc       	out	0x2d, r1	; 45
    109a:	1c bc       	out	0x2c, r1	; 44
	OCR1A = 250; 	//speed of Left Motor 0-250
    109c:	8a ef       	ldi	r24, 0xFA	; 250
    109e:	90 e0       	ldi	r25, 0x00	; 0
    10a0:	9b bd       	out	0x2b, r25	; 43
    10a2:	8a bd       	out	0x2a, r24	; 42
	OCR1B = 250; 	//speed of Right Motor 0-250
    10a4:	99 bd       	out	0x29, r25	; 41
    10a6:	88 bd       	out	0x28, r24	; 40
	ICR1 = 250; 	// Top value for TCNT1 defines the freq of the PMW (10MHz / 250 = 40 kHz)
    10a8:	97 bd       	out	0x27, r25	; 39
    10aa:	86 bd       	out	0x26, r24	; 38


	// Initilize Timer/Counter 0		
	TCCR0 = 0b00001101;
    10ac:	8d e0       	ldi	r24, 0x0D	; 13
    10ae:	83 bf       	out	0x33, r24	; 51
	// WGM CTC, OCR0 is TOP
	// OC0 disconnected.
	// clk/1024 prescaler = 9,765.625 Hz
	
	TCNT0 = 0;	// reset counter0
    10b0:	12 be       	out	0x32, r1	; 50
	OCR0 = 98;	// Counter divisor 9,765.625/98 = 99,64923469 Hz ~ 10 ms period
    10b2:	82 e6       	ldi	r24, 0x62	; 98
    10b4:	8c bf       	out	0x3c, r24	; 60

	// Enabled Timer/Counter0 Compare Match interrupt.
	TIMSK |= 2;
    10b6:	89 b7       	in	r24, 0x39	; 57
    10b8:	82 60       	ori	r24, 0x02	; 2
    10ba:	89 bf       	out	0x39, r24	; 57


	// External interrupts... 
	//General Interrupt Control Register
	GICR |= 0b11000000;
    10bc:	8b b7       	in	r24, 0x3b	; 59
    10be:	80 6c       	ori	r24, 0xC0	; 192
    10c0:	8b bf       	out	0x3b, r24	; 59
	// bit 6 = 1 = Enable INT1
	// bit 7 = 1 = Enable INT0

	//MCU Control Register
	MCUCR |= 0b00001111;
    10c2:	85 b7       	in	r24, 0x35	; 53
    10c4:	8f 60       	ori	r24, 0x0F	; 15
    10c6:	85 bf       	out	0x35, r24	; 53
	// bit1, bit0 = 11 = positive logical change on INT0 generates an interupt request.
	// bit3, bit2 = 11 = positive logical change on INT1 generates an interupt request

	//MSU Control and Status Register
	MCUCSR |= 0b00000000;
    10c8:	84 b7       	in	r24, 0x34	; 52
    10ca:	84 bf       	out	0x34, r24	; 52

	// General Interrupt Flag Register
	GIFR   |= 0b11000000;
    10cc:	8a b7       	in	r24, 0x3a	; 58
    10ce:	80 6c       	ori	r24, 0xC0	; 192
    10d0:	8a bf       	out	0x3a, r24	; 58
    10d2:	08 95       	ret

000010d4 <enableHBridge>:
}

// Enable outputs on the H-bridge
void enableHBridge(void){
	setHigh(PORTC, BRIDGE_EN);
    10d4:	a8 9a       	sbi	0x15, 0	; 21
    10d6:	08 95       	ret

000010d8 <getSensorUpdateFlag>:
	setLow(PORTC, BRIDGE_EN);
}

// Get sensor update Flag
uint8_t getSensorUpdateFlag(){
	return sensorUpdateFlag;
    10d8:	80 91 0a 01 	lds	r24, 0x010A
}
    10dc:	08 95       	ret

000010de <clearSensorUpdateFlag>:

// Clear Sensor update Flag
void clearSensorUpdateFlag(){
	sensorUpdateFlag = 0;
    10de:	10 92 0a 01 	sts	0x010A, r1
    10e2:	08 95       	ret

000010e4 <limitDutyCycle>:
	OCR1B = limitDutyCycle(duty);	
}


// Limits for the DutyCycle
uint8_t limitDutyCycle(signed int duty){
    10e4:	8b 3f       	cpi	r24, 0xFB	; 251
    10e6:	91 05       	cpc	r25, r1
    10e8:	14 f0       	brlt	.+4      	; 0x10ee <limitDutyCycle+0xa>
    10ea:	8a ef       	ldi	r24, 0xFA	; 250
    10ec:	90 e0       	ldi	r25, 0x00	; 0
    10ee:	99 23       	and	r25, r25
    10f0:	14 f4       	brge	.+4      	; 0x10f6 <limitDutyCycle+0x12>
    10f2:	80 e0       	ldi	r24, 0x00	; 0
    10f4:	90 e0       	ldi	r25, 0x00	; 0
	}
	if(duty<0){
		duty = 0;
	}
	return duty;
}
    10f6:	08 95       	ret

000010f8 <setDutyCycleMotorL>:
}

// Set duty cycle for Left Motor 0-100%
void setDutyCycleMotorL(signed int duty){
	
	OCR1A = limitDutyCycle(duty);
    10f8:	0e 94 72 08 	call	0x10e4	; 0x10e4 <limitDutyCycle>
    10fc:	90 e0       	ldi	r25, 0x00	; 0
    10fe:	9b bd       	out	0x2b, r25	; 43
    1100:	8a bd       	out	0x2a, r24	; 42
    1102:	08 95       	ret

00001104 <setDutyCycleMotorR>:
}

// Set duty cycle for Right Motor 0-100%
void setDutyCycleMotorR(signed int duty){
	
	OCR1B = limitDutyCycle(duty);	
    1104:	0e 94 72 08 	call	0x10e4	; 0x10e4 <limitDutyCycle>
    1108:	90 e0       	ldi	r25, 0x00	; 0
    110a:	99 bd       	out	0x29, r25	; 41
    110c:	88 bd       	out	0x28, r24	; 40
    110e:	08 95       	ret

00001110 <setDirectionMotorL>:
}

// Set direction for Left Motor. 0 forward, 1 backward
void setDirectionMotorL(uint8_t dir){

	if(dir)
    1110:	88 23       	and	r24, r24
    1112:	29 f0       	breq	.+10     	; 0x111e <setDirectionMotorL+0xe>
	{
		setLow(PORTD, BRIDGE_A2);
    1114:	97 98       	cbi	0x12, 7	; 18
		TCCR1A &= ~(1 << 6);
    1116:	8f b5       	in	r24, 0x2f	; 47
    1118:	8f 7b       	andi	r24, 0xBF	; 191
    111a:	8f bd       	out	0x2f, r24	; 47
    111c:	08 95       	ret
	}
	else
	{
		setHigh(PORTD, BRIDGE_A2);	
    111e:	97 9a       	sbi	0x12, 7	; 18
		TCCR1A |= 1 << 6;
    1120:	8f b5       	in	r24, 0x2f	; 47
    1122:	80 64       	ori	r24, 0x40	; 64
    1124:	8f bd       	out	0x2f, r24	; 47
    1126:	08 95       	ret

00001128 <setDirectionMotorR>:
}

// Set direction for Right Motor 0 forward, 1 backward
void setDirectionMotorR(uint8_t dir){

	if(dir){
    1128:	88 23       	and	r24, r24
    112a:	29 f0       	breq	.+10     	; 0x1136 <setDirectionMotorR+0xe>
		setLow(PORTD, BRIDGE_A4);
    112c:	96 98       	cbi	0x12, 6	; 18
		TCCR1A &= ~(1 << 4); 
    112e:	8f b5       	in	r24, 0x2f	; 47
    1130:	8f 7e       	andi	r24, 0xEF	; 239
    1132:	8f bd       	out	0x2f, r24	; 47
    1134:	08 95       	ret
	}else{
		setHigh(PORTD, BRIDGE_A4);
    1136:	96 9a       	sbi	0x12, 6	; 18
		TCCR1A |= 1 << 4; 
    1138:	8f b5       	in	r24, 0x2f	; 47
    113a:	80 61       	ori	r24, 0x10	; 16
    113c:	8f bd       	out	0x2f, r24	; 47
    113e:	08 95       	ret

00001140 <getSensorMotorL>:
	}
}

// Get the count value from left Motor
uint8_t getSensorMotorL(){
	return sensorMotorL;
    1140:	80 91 0b 01 	lds	r24, 0x010B
}
    1144:	08 95       	ret

00001146 <getSensorMotorR>:

// Get the count value from Right Motor
uint8_t getSensorMotorR(){
	return sensorMotorR;
    1146:	80 91 0c 01 	lds	r24, 0x010C
}
    114a:	08 95       	ret

0000114c <showMotorInfo>:
void setKi(float value){
	Ki = value;
}

// Write on display duty cycle for Both Motors, 1st line on LCD
void showMotorInfo(){
    114c:	0f 93       	push	r16
    114e:	1f 93       	push	r17
    1150:	cf 93       	push	r28
    1152:	df 93       	push	r29
    1154:	cd b7       	in	r28, 0x3d	; 61
    1156:	de b7       	in	r29, 0x3e	; 62
    1158:	64 97       	sbiw	r28, 0x14	; 20
    115a:	0f b6       	in	r0, 0x3f	; 63
    115c:	f8 94       	cli
    115e:	de bf       	out	0x3e, r29	; 62
    1160:	0f be       	out	0x3f, r0	; 63
    1162:	cd bf       	out	0x3d, r28	; 61
	
	char buffer[20];
	LCDGotoXY(0,0);
    1164:	60 e0       	ldi	r22, 0x00	; 0
    1166:	80 e0       	ldi	r24, 0x00	; 0
    1168:	0e 94 3f 04 	call	0x87e	; 0x87e <LCDGotoXY>
	sprintf(buffer, "%04i %04i",dutyL, dutyR);
    116c:	80 91 20 01 	lds	r24, 0x0120
    1170:	8f 93       	push	r24
    1172:	80 91 1f 01 	lds	r24, 0x011F
    1176:	8f 93       	push	r24
    1178:	80 91 22 01 	lds	r24, 0x0122
    117c:	8f 93       	push	r24
    117e:	80 91 21 01 	lds	r24, 0x0121
    1182:	8f 93       	push	r24
    1184:	89 ee       	ldi	r24, 0xE9	; 233
    1186:	90 e0       	ldi	r25, 0x00	; 0
    1188:	9f 93       	push	r25
    118a:	8f 93       	push	r24
    118c:	8e 01       	movw	r16, r28
    118e:	0f 5f       	subi	r16, 0xFF	; 255
    1190:	1f 4f       	sbci	r17, 0xFF	; 255
    1192:	1f 93       	push	r17
    1194:	0f 93       	push	r16
    1196:	0e 94 f6 0c 	call	0x19ec	; 0x19ec <sprintf>
	LCDPutString(buffer);
    119a:	c8 01       	movw	r24, r16
    119c:	0e 94 7f 04 	call	0x8fe	; 0x8fe <LCDPutString>
    11a0:	0f b6       	in	r0, 0x3f	; 63
    11a2:	f8 94       	cli
    11a4:	de bf       	out	0x3e, r29	; 62
    11a6:	0f be       	out	0x3f, r0	; 63
    11a8:	cd bf       	out	0x3d, r28	; 61
}
    11aa:	64 96       	adiw	r28, 0x14	; 20
    11ac:	0f b6       	in	r0, 0x3f	; 63
    11ae:	f8 94       	cli
    11b0:	de bf       	out	0x3e, r29	; 62
    11b2:	0f be       	out	0x3f, r0	; 63
    11b4:	cd bf       	out	0x3d, r28	; 61
    11b6:	df 91       	pop	r29
    11b8:	cf 91       	pop	r28
    11ba:	1f 91       	pop	r17
    11bc:	0f 91       	pop	r16
    11be:	08 95       	ret

000011c0 <calcDuty>:
	return sensorMotorR;
}

// PI controller. 
// Computes the Duty Cycle for desired speed and bias and set the dutyCycle.
void calcDuty(uint16_t ref, float error){
    11c0:	4f 92       	push	r4
    11c2:	5f 92       	push	r5
    11c4:	6f 92       	push	r6
    11c6:	7f 92       	push	r7
    11c8:	8f 92       	push	r8
    11ca:	9f 92       	push	r9
    11cc:	af 92       	push	r10
    11ce:	bf 92       	push	r11
    11d0:	cf 92       	push	r12
    11d2:	df 92       	push	r13
    11d4:	ef 92       	push	r14
    11d6:	ff 92       	push	r15
    11d8:	cf 93       	push	r28
    11da:	df 93       	push	r29
    11dc:	cd b7       	in	r28, 0x3d	; 61
    11de:	de b7       	in	r29, 0x3e	; 62
    11e0:	2c 97       	sbiw	r28, 0x0c	; 12
    11e2:	0f b6       	in	r0, 0x3f	; 63
    11e4:	f8 94       	cli
    11e6:	de bf       	out	0x3e, r29	; 62
    11e8:	0f be       	out	0x3f, r0	; 63
    11ea:	cd bf       	out	0x3d, r28	; 61
    11ec:	6a 01       	movw	r12, r20
    11ee:	7b 01       	movw	r14, r22
	
	// Find the error values
	errorL = ref - (float)getSensorMotorL() - error / 2;
    11f0:	bc 01       	movw	r22, r24
    11f2:	80 e0       	ldi	r24, 0x00	; 0
    11f4:	90 e0       	ldi	r25, 0x00	; 0
    11f6:	0e 94 cd 0b 	call	0x179a	; 0x179a <__floatunsisf>
    11fa:	2b 01       	movw	r4, r22
    11fc:	3c 01       	movw	r6, r24
	}
}

// Get the count value from left Motor
uint8_t getSensorMotorL(){
	return sensorMotorL;
    11fe:	b0 90 0b 01 	lds	r11, 0x010B
// PI controller. 
// Computes the Duty Cycle for desired speed and bias and set the dutyCycle.
void calcDuty(uint16_t ref, float error){
	
	// Find the error values
	errorL = ref - (float)getSensorMotorL() - error / 2;
    1202:	20 e0       	ldi	r18, 0x00	; 0
    1204:	30 e0       	ldi	r19, 0x00	; 0
    1206:	40 e0       	ldi	r20, 0x00	; 0
    1208:	5f e3       	ldi	r21, 0x3F	; 63
    120a:	c7 01       	movw	r24, r14
    120c:	b6 01       	movw	r22, r12
    120e:	0e 94 5b 0c 	call	0x18b6	; 0x18b6 <__mulsf3>
    1212:	6b 01       	movw	r12, r22
    1214:	7c 01       	movw	r14, r24
    1216:	6b 2d       	mov	r22, r11
    1218:	70 e0       	ldi	r23, 0x00	; 0
    121a:	80 e0       	ldi	r24, 0x00	; 0
    121c:	90 e0       	ldi	r25, 0x00	; 0
    121e:	0e 94 cd 0b 	call	0x179a	; 0x179a <__floatunsisf>
    1222:	9b 01       	movw	r18, r22
    1224:	ac 01       	movw	r20, r24
    1226:	c3 01       	movw	r24, r6
    1228:	b2 01       	movw	r22, r4
    122a:	0e 94 2a 0b 	call	0x1654	; 0x1654 <__subsf3>
    122e:	a7 01       	movw	r20, r14
    1230:	96 01       	movw	r18, r12
    1232:	0e 94 2a 0b 	call	0x1654	; 0x1654 <__subsf3>
    1236:	4b 01       	movw	r8, r22
    1238:	5c 01       	movw	r10, r24
    123a:	60 93 13 01 	sts	0x0113, r22
    123e:	70 93 14 01 	sts	0x0114, r23
    1242:	80 93 15 01 	sts	0x0115, r24
    1246:	90 93 16 01 	sts	0x0116, r25
	return sensorMotorL;
}

// Get the count value from Right Motor
uint8_t getSensorMotorR(){
	return sensorMotorR;
    124a:	60 91 0c 01 	lds	r22, 0x010C
// Computes the Duty Cycle for desired speed and bias and set the dutyCycle.
void calcDuty(uint16_t ref, float error){
	
	// Find the error values
	errorL = ref - (float)getSensorMotorL() - error / 2;
	errorR = ref - (float)getSensorMotorR() + error / 2;
    124e:	70 e0       	ldi	r23, 0x00	; 0
    1250:	80 e0       	ldi	r24, 0x00	; 0
    1252:	90 e0       	ldi	r25, 0x00	; 0
    1254:	0e 94 cd 0b 	call	0x179a	; 0x179a <__floatunsisf>
    1258:	9b 01       	movw	r18, r22
    125a:	ac 01       	movw	r20, r24
    125c:	c3 01       	movw	r24, r6
    125e:	b2 01       	movw	r22, r4
    1260:	0e 94 2a 0b 	call	0x1654	; 0x1654 <__subsf3>
    1264:	9b 01       	movw	r18, r22
    1266:	ac 01       	movw	r20, r24
    1268:	c7 01       	movw	r24, r14
    126a:	b6 01       	movw	r22, r12
    126c:	0e 94 2b 0b 	call	0x1656	; 0x1656 <__addsf3>
    1270:	6b 01       	movw	r12, r22
    1272:	7c 01       	movw	r14, r24
    1274:	60 93 0f 01 	sts	0x010F, r22
    1278:	70 93 10 01 	sts	0x0110, r23
    127c:	80 93 11 01 	sts	0x0111, r24
    1280:	90 93 12 01 	sts	0x0112, r25
	
	// Anti windup
	if((dutyL >=250) || (dutyL < 0)){
    1284:	80 91 21 01 	lds	r24, 0x0121
    1288:	90 91 22 01 	lds	r25, 0x0122
    128c:	8a 3f       	cpi	r24, 0xFA	; 250
    128e:	91 05       	cpc	r25, r1
    1290:	18 f0       	brcs	.+6      	; 0x1298 <calcDuty+0xd8>
		windL = 0;
    1292:	10 92 75 00 	sts	0x0075, r1
    1296:	03 c0       	rjmp	.+6      	; 0x129e <calcDuty+0xde>
	}
	else{
		windL = 1;
    1298:	81 e0       	ldi	r24, 0x01	; 1
    129a:	80 93 75 00 	sts	0x0075, r24
	}			

	if((dutyR >=250) || (dutyR < 0)){
    129e:	80 91 1f 01 	lds	r24, 0x011F
    12a2:	90 91 20 01 	lds	r25, 0x0120
    12a6:	8a 3f       	cpi	r24, 0xFA	; 250
    12a8:	91 05       	cpc	r25, r1
    12aa:	18 f0       	brcs	.+6      	; 0x12b2 <calcDuty+0xf2>
		windR = 0;
    12ac:	10 92 74 00 	sts	0x0074, r1
    12b0:	03 c0       	rjmp	.+6      	; 0x12b8 <calcDuty+0xf8>
	}
	else{
		windR = 1;
    12b2:	81 e0       	ldi	r24, 0x01	; 1
    12b4:	80 93 74 00 	sts	0x0074, r24
	}	

	// Calculate integration sum.
	intL = intL + errorL*T*windL;
    12b8:	80 91 68 00 	lds	r24, 0x0068
    12bc:	90 91 69 00 	lds	r25, 0x0069
    12c0:	a0 91 6a 00 	lds	r26, 0x006A
    12c4:	b0 91 6b 00 	lds	r27, 0x006B
    12c8:	89 83       	std	Y+1, r24	; 0x01
    12ca:	9a 83       	std	Y+2, r25	; 0x02
    12cc:	ab 83       	std	Y+3, r26	; 0x03
    12ce:	bc 83       	std	Y+4, r27	; 0x04
    12d0:	9c 01       	movw	r18, r24
    12d2:	ad 01       	movw	r20, r26
    12d4:	c5 01       	movw	r24, r10
    12d6:	b4 01       	movw	r22, r8
    12d8:	0e 94 5b 0c 	call	0x18b6	; 0x18b6 <__mulsf3>
    12dc:	2b 01       	movw	r4, r22
    12de:	3c 01       	movw	r6, r24
    12e0:	60 91 75 00 	lds	r22, 0x0075
    12e4:	70 e0       	ldi	r23, 0x00	; 0
    12e6:	80 e0       	ldi	r24, 0x00	; 0
    12e8:	90 e0       	ldi	r25, 0x00	; 0
    12ea:	0e 94 cf 0b 	call	0x179e	; 0x179e <__floatsisf>
    12ee:	9b 01       	movw	r18, r22
    12f0:	ac 01       	movw	r20, r24
    12f2:	c3 01       	movw	r24, r6
    12f4:	b2 01       	movw	r22, r4
    12f6:	0e 94 5b 0c 	call	0x18b6	; 0x18b6 <__mulsf3>
    12fa:	20 91 1b 01 	lds	r18, 0x011B
    12fe:	30 91 1c 01 	lds	r19, 0x011C
    1302:	40 91 1d 01 	lds	r20, 0x011D
    1306:	50 91 1e 01 	lds	r21, 0x011E
    130a:	0e 94 2b 0b 	call	0x1656	; 0x1656 <__addsf3>
    130e:	2b 01       	movw	r4, r22
    1310:	3c 01       	movw	r6, r24
    1312:	60 93 1b 01 	sts	0x011B, r22
    1316:	70 93 1c 01 	sts	0x011C, r23
    131a:	80 93 1d 01 	sts	0x011D, r24
    131e:	90 93 1e 01 	sts	0x011E, r25
	intR = intR + errorR*T*windR;
    1322:	29 81       	ldd	r18, Y+1	; 0x01
    1324:	3a 81       	ldd	r19, Y+2	; 0x02
    1326:	4b 81       	ldd	r20, Y+3	; 0x03
    1328:	5c 81       	ldd	r21, Y+4	; 0x04
    132a:	c7 01       	movw	r24, r14
    132c:	b6 01       	movw	r22, r12
    132e:	0e 94 5b 0c 	call	0x18b6	; 0x18b6 <__mulsf3>
    1332:	69 83       	std	Y+1, r22	; 0x01
    1334:	7a 83       	std	Y+2, r23	; 0x02
    1336:	8b 83       	std	Y+3, r24	; 0x03
    1338:	9c 83       	std	Y+4, r25	; 0x04
    133a:	60 91 74 00 	lds	r22, 0x0074
    133e:	70 e0       	ldi	r23, 0x00	; 0
    1340:	80 e0       	ldi	r24, 0x00	; 0
    1342:	90 e0       	ldi	r25, 0x00	; 0
    1344:	0e 94 cf 0b 	call	0x179e	; 0x179e <__floatsisf>
    1348:	9b 01       	movw	r18, r22
    134a:	ac 01       	movw	r20, r24
    134c:	69 81       	ldd	r22, Y+1	; 0x01
    134e:	7a 81       	ldd	r23, Y+2	; 0x02
    1350:	8b 81       	ldd	r24, Y+3	; 0x03
    1352:	9c 81       	ldd	r25, Y+4	; 0x04
    1354:	0e 94 5b 0c 	call	0x18b6	; 0x18b6 <__mulsf3>
    1358:	20 91 17 01 	lds	r18, 0x0117
    135c:	30 91 18 01 	lds	r19, 0x0118
    1360:	40 91 19 01 	lds	r20, 0x0119
    1364:	50 91 1a 01 	lds	r21, 0x011A
    1368:	0e 94 2b 0b 	call	0x1656	; 0x1656 <__addsf3>
    136c:	69 87       	std	Y+9, r22	; 0x09
    136e:	7a 87       	std	Y+10, r23	; 0x0a
    1370:	8b 87       	std	Y+11, r24	; 0x0b
    1372:	9c 87       	std	Y+12, r25	; 0x0c
    1374:	60 93 17 01 	sts	0x0117, r22
    1378:	70 93 18 01 	sts	0x0118, r23
    137c:	80 93 19 01 	sts	0x0119, r24
    1380:	90 93 1a 01 	sts	0x011A, r25


	// Calculate new DutyCycle values.
	// *12.5 to transform from pulses to DutyCycle
	dutyL = (signed int)((intL*Ki + errorL*Kp)*12.5);
    1384:	80 91 6c 00 	lds	r24, 0x006C
    1388:	90 91 6d 00 	lds	r25, 0x006D
    138c:	a0 91 6e 00 	lds	r26, 0x006E
    1390:	b0 91 6f 00 	lds	r27, 0x006F
    1394:	89 83       	std	Y+1, r24	; 0x01
    1396:	9a 83       	std	Y+2, r25	; 0x02
    1398:	ab 83       	std	Y+3, r26	; 0x03
    139a:	bc 83       	std	Y+4, r27	; 0x04
    139c:	80 91 70 00 	lds	r24, 0x0070
    13a0:	90 91 71 00 	lds	r25, 0x0071
    13a4:	a0 91 72 00 	lds	r26, 0x0072
    13a8:	b0 91 73 00 	lds	r27, 0x0073
    13ac:	8d 83       	std	Y+5, r24	; 0x05
    13ae:	9e 83       	std	Y+6, r25	; 0x06
    13b0:	af 83       	std	Y+7, r26	; 0x07
    13b2:	b8 87       	std	Y+8, r27	; 0x08
    13b4:	29 81       	ldd	r18, Y+1	; 0x01
    13b6:	3a 81       	ldd	r19, Y+2	; 0x02
    13b8:	4b 81       	ldd	r20, Y+3	; 0x03
    13ba:	5c 81       	ldd	r21, Y+4	; 0x04
    13bc:	c3 01       	movw	r24, r6
    13be:	b2 01       	movw	r22, r4
    13c0:	0e 94 5b 0c 	call	0x18b6	; 0x18b6 <__mulsf3>
    13c4:	2b 01       	movw	r4, r22
    13c6:	3c 01       	movw	r6, r24
    13c8:	2d 81       	ldd	r18, Y+5	; 0x05
    13ca:	3e 81       	ldd	r19, Y+6	; 0x06
    13cc:	4f 81       	ldd	r20, Y+7	; 0x07
    13ce:	58 85       	ldd	r21, Y+8	; 0x08
    13d0:	c5 01       	movw	r24, r10
    13d2:	b4 01       	movw	r22, r8
    13d4:	0e 94 5b 0c 	call	0x18b6	; 0x18b6 <__mulsf3>
    13d8:	9b 01       	movw	r18, r22
    13da:	ac 01       	movw	r20, r24
    13dc:	c3 01       	movw	r24, r6
    13de:	b2 01       	movw	r22, r4
    13e0:	0e 94 2b 0b 	call	0x1656	; 0x1656 <__addsf3>
    13e4:	20 e0       	ldi	r18, 0x00	; 0
    13e6:	30 e0       	ldi	r19, 0x00	; 0
    13e8:	48 e4       	ldi	r20, 0x48	; 72
    13ea:	51 e4       	ldi	r21, 0x41	; 65
    13ec:	0e 94 5b 0c 	call	0x18b6	; 0x18b6 <__mulsf3>
    13f0:	0e 94 97 0b 	call	0x172e	; 0x172e <__fixsfsi>
    13f4:	2b 01       	movw	r4, r22
    13f6:	3c 01       	movw	r6, r24
    13f8:	70 93 22 01 	sts	0x0122, r23
    13fc:	60 93 21 01 	sts	0x0121, r22
	dutyR = (signed int)((intR*Ki + errorR*Kp)*12.5);
    1400:	29 81       	ldd	r18, Y+1	; 0x01
    1402:	3a 81       	ldd	r19, Y+2	; 0x02
    1404:	4b 81       	ldd	r20, Y+3	; 0x03
    1406:	5c 81       	ldd	r21, Y+4	; 0x04
    1408:	69 85       	ldd	r22, Y+9	; 0x09
    140a:	7a 85       	ldd	r23, Y+10	; 0x0a
    140c:	8b 85       	ldd	r24, Y+11	; 0x0b
    140e:	9c 85       	ldd	r25, Y+12	; 0x0c
    1410:	0e 94 5b 0c 	call	0x18b6	; 0x18b6 <__mulsf3>
    1414:	4b 01       	movw	r8, r22
    1416:	5c 01       	movw	r10, r24
    1418:	2d 81       	ldd	r18, Y+5	; 0x05
    141a:	3e 81       	ldd	r19, Y+6	; 0x06
    141c:	4f 81       	ldd	r20, Y+7	; 0x07
    141e:	58 85       	ldd	r21, Y+8	; 0x08
    1420:	c7 01       	movw	r24, r14
    1422:	b6 01       	movw	r22, r12
    1424:	0e 94 5b 0c 	call	0x18b6	; 0x18b6 <__mulsf3>
    1428:	9b 01       	movw	r18, r22
    142a:	ac 01       	movw	r20, r24
    142c:	c5 01       	movw	r24, r10
    142e:	b4 01       	movw	r22, r8
    1430:	0e 94 2b 0b 	call	0x1656	; 0x1656 <__addsf3>
    1434:	20 e0       	ldi	r18, 0x00	; 0
    1436:	30 e0       	ldi	r19, 0x00	; 0
    1438:	48 e4       	ldi	r20, 0x48	; 72
    143a:	51 e4       	ldi	r21, 0x41	; 65
    143c:	0e 94 5b 0c 	call	0x18b6	; 0x18b6 <__mulsf3>
    1440:	0e 94 97 0b 	call	0x172e	; 0x172e <__fixsfsi>
    1444:	70 93 20 01 	sts	0x0120, r23
    1448:	60 93 1f 01 	sts	0x011F, r22

	setDutyCycleMotorL(dutyL);
    144c:	c2 01       	movw	r24, r4
    144e:	0e 94 7c 08 	call	0x10f8	; 0x10f8 <setDutyCycleMotorL>
	setDutyCycleMotorR(dutyR);
    1452:	80 91 1f 01 	lds	r24, 0x011F
    1456:	90 91 20 01 	lds	r25, 0x0120
    145a:	0e 94 82 08 	call	0x1104	; 0x1104 <setDutyCycleMotorR>

	// Show 
	showMotorInfo();
    145e:	0e 94 a6 08 	call	0x114c	; 0x114c <showMotorInfo>

}
    1462:	2c 96       	adiw	r28, 0x0c	; 12
    1464:	0f b6       	in	r0, 0x3f	; 63
    1466:	f8 94       	cli
    1468:	de bf       	out	0x3e, r29	; 62
    146a:	0f be       	out	0x3f, r0	; 63
    146c:	cd bf       	out	0x3d, r28	; 61
    146e:	df 91       	pop	r29
    1470:	cf 91       	pop	r28
    1472:	ff 90       	pop	r15
    1474:	ef 90       	pop	r14
    1476:	df 90       	pop	r13
    1478:	cf 90       	pop	r12
    147a:	bf 90       	pop	r11
    147c:	af 90       	pop	r10
    147e:	9f 90       	pop	r9
    1480:	8f 90       	pop	r8
    1482:	7f 90       	pop	r7
    1484:	6f 90       	pop	r6
    1486:	5f 90       	pop	r5
    1488:	4f 90       	pop	r4
    148a:	08 95       	ret

0000148c <__vector_1>:
/////////////////////////////////////////////////////////////////////////
//                       Interrupt service routines                    //
/////////////////////////////////////////////////////////////////////////

// Interrupt from SensorA, Right Motor
ISR(INT0_vect){
    148c:	1f 92       	push	r1
    148e:	0f 92       	push	r0
    1490:	0f b6       	in	r0, 0x3f	; 63
    1492:	0f 92       	push	r0
    1494:	11 24       	eor	r1, r1
    1496:	8f 93       	push	r24
	sensorMotorR_temp++;
    1498:	80 91 0e 01 	lds	r24, 0x010E
    149c:	8f 5f       	subi	r24, 0xFF	; 255
    149e:	80 93 0e 01 	sts	0x010E, r24
}
    14a2:	8f 91       	pop	r24
    14a4:	0f 90       	pop	r0
    14a6:	0f be       	out	0x3f, r0	; 63
    14a8:	0f 90       	pop	r0
    14aa:	1f 90       	pop	r1
    14ac:	18 95       	reti

000014ae <__vector_2>:

// Interrupt from SensorB, Left Motor
ISR(INT1_vect){
    14ae:	1f 92       	push	r1
    14b0:	0f 92       	push	r0
    14b2:	0f b6       	in	r0, 0x3f	; 63
    14b4:	0f 92       	push	r0
    14b6:	11 24       	eor	r1, r1
    14b8:	8f 93       	push	r24
	sensorMotorL_temp++;
    14ba:	80 91 0d 01 	lds	r24, 0x010D
    14be:	8f 5f       	subi	r24, 0xFF	; 255
    14c0:	80 93 0d 01 	sts	0x010D, r24
}
    14c4:	8f 91       	pop	r24
    14c6:	0f 90       	pop	r0
    14c8:	0f be       	out	0x3f, r0	; 63
    14ca:	0f 90       	pop	r0
    14cc:	1f 90       	pop	r1
    14ce:	18 95       	reti

000014d0 <__vector_10>:

// Safe current value of counts from the sensors every ~10ms and clear the counters.
ISR(TIMER0_COMP_vect){
    14d0:	1f 92       	push	r1
    14d2:	0f 92       	push	r0
    14d4:	0f b6       	in	r0, 0x3f	; 63
    14d6:	0f 92       	push	r0
    14d8:	11 24       	eor	r1, r1
    14da:	8f 93       	push	r24
	sensorMotorR = sensorMotorR_temp;
    14dc:	80 91 0e 01 	lds	r24, 0x010E
    14e0:	80 93 0c 01 	sts	0x010C, r24
	sensorMotorR_temp = 0;
    14e4:	10 92 0e 01 	sts	0x010E, r1
	sensorMotorL = sensorMotorL_temp;
    14e8:	80 91 0d 01 	lds	r24, 0x010D
    14ec:	80 93 0b 01 	sts	0x010B, r24
	sensorMotorL_temp = 0;
    14f0:	10 92 0d 01 	sts	0x010D, r1
	sensorUpdateFlag = 1;
    14f4:	81 e0       	ldi	r24, 0x01	; 1
    14f6:	80 93 0a 01 	sts	0x010A, r24
}
    14fa:	8f 91       	pop	r24
    14fc:	0f 90       	pop	r0
    14fe:	0f be       	out	0x3f, r0	; 63
    1500:	0f 90       	pop	r0
    1502:	1f 90       	pop	r1
    1504:	18 95       	reti

00001506 <possibleLineFound>:
	} while (!hasLineBeenFound());
}

bool possibleLineFound()
{
	uint8_t floorSensor = readFloorSensors();
    1506:	0e 94 6f 03 	call	0x6de	; 0x6de <readFloorSensors>

	switch (floorSensor)
    150a:	80 34       	cpi	r24, 0x40	; 64
    150c:	60 f4       	brcc	.+24     	; 0x1526 <possibleLineFound+0x20>
    150e:	8e 33       	cpi	r24, 0x3E	; 62
    1510:	a8 f4       	brcc	.+42     	; 0x153c <possibleLineFound+0x36>
    1512:	80 32       	cpi	r24, 0x20	; 32
    1514:	28 f4       	brcc	.+10     	; 0x1520 <possibleLineFound+0x1a>
    1516:	8e 31       	cpi	r24, 0x1E	; 30
    1518:	88 f4       	brcc	.+34     	; 0x153c <possibleLineFound+0x36>
    151a:	8f 30       	cpi	r24, 0x0F	; 15
    151c:	69 f4       	brne	.+26     	; 0x1538 <possibleLineFound+0x32>
    151e:	0e c0       	rjmp	.+28     	; 0x153c <possibleLineFound+0x36>
    1520:	8c 33       	cpi	r24, 0x3C	; 60
    1522:	51 f4       	brne	.+20     	; 0x1538 <possibleLineFound+0x32>
    1524:	0b c0       	rjmp	.+22     	; 0x153c <possibleLineFound+0x36>
    1526:	8c 37       	cpi	r24, 0x7C	; 124
    1528:	49 f0       	breq	.+18     	; 0x153c <possibleLineFound+0x36>
    152a:	18 f4       	brcc	.+6      	; 0x1532 <possibleLineFound+0x2c>
    152c:	88 37       	cpi	r24, 0x78	; 120
    152e:	21 f4       	brne	.+8      	; 0x1538 <possibleLineFound+0x32>
    1530:	05 c0       	rjmp	.+10     	; 0x153c <possibleLineFound+0x36>
    1532:	8e 57       	subi	r24, 0x7E	; 126
    1534:	82 30       	cpi	r24, 0x02	; 2
    1536:	10 f0       	brcs	.+4      	; 0x153c <possibleLineFound+0x36>

		case 0b01111111:

		return true;
		default:
		return false;
    1538:	80 e0       	ldi	r24, 0x00	; 0
    153a:	08 95       	ret
		case 0b00111111:
		case 0b01111110:

		case 0b01111111:

		return true;
    153c:	81 e0       	ldi	r24, 0x01	; 1
		default:
		return false;
	}
}
    153e:	08 95       	ret

00001540 <hasLineBeenFound>:

bool hasLineBeenFound()
{
    1540:	cf 93       	push	r28
    1542:	c3 e0       	ldi	r28, 0x03	; 3
	for (uint8_t attempt = 0; attempt < 3; attempt++)
	{		
		if (possibleLineFound() == false)
    1544:	0e 94 83 0a 	call	0x1506	; 0x1506 <possibleLineFound>
    1548:	88 23       	and	r24, r24
    154a:	41 f0       	breq	.+16     	; 0x155c <hasLineBeenFound+0x1c>
    154c:	e7 e9       	ldi	r30, 0x97	; 151
    154e:	fa e3       	ldi	r31, 0x3A	; 58
    1550:	31 97       	sbiw	r30, 0x01	; 1
    1552:	f1 f7       	brne	.-4      	; 0x1550 <hasLineBeenFound+0x10>
    1554:	00 c0       	rjmp	.+0      	; 0x1556 <hasLineBeenFound+0x16>
    1556:	00 00       	nop
    1558:	c1 50       	subi	r28, 0x01	; 1
	}
}

bool hasLineBeenFound()
{
	for (uint8_t attempt = 0; attempt < 3; attempt++)
    155a:	a1 f7       	brne	.-24     	; 0x1544 <hasLineBeenFound+0x4>
		}
		_delay_ms(6);
	}

	return true;
}
    155c:	cf 91       	pop	r28
    155e:	08 95       	ret

00001560 <obstacleDetectedInFront>:

bool obstacleDetectedInFront()
{
	uint16_t distance = AdcConvert(1);
    1560:	81 e0       	ldi	r24, 0x01	; 1
    1562:	0e 94 50 00 	call	0xa0	; 0xa0 <AdcConvert>

	if (distance > (uint16_t)400)
    1566:	21 e0       	ldi	r18, 0x01	; 1
    1568:	81 39       	cpi	r24, 0x91	; 145
    156a:	91 40       	sbci	r25, 0x01	; 1
    156c:	08 f4       	brcc	.+2      	; 0x1570 <obstacleDetectedInFront+0x10>
    156e:	20 e0       	ldi	r18, 0x00	; 0
	{
		return true;
	}

	return false;
}
    1570:	82 2f       	mov	r24, r18
    1572:	08 95       	ret

00001574 <isTooFarFromObstacle>:
	} while (hasAlignedWithObstacle() ==  false);
}

bool isTooFarFromObstacle()
{
	uint16_t distance = AdcConvert(2);
    1574:	82 e0       	ldi	r24, 0x02	; 2
    1576:	0e 94 50 00 	call	0xa0	; 0xa0 <AdcConvert>

	if (distance < (uint16_t)350)
    157a:	21 e0       	ldi	r18, 0x01	; 1
    157c:	8e 35       	cpi	r24, 0x5E	; 94
    157e:	91 40       	sbci	r25, 0x01	; 1
    1580:	08 f0       	brcs	.+2      	; 0x1584 <isTooFarFromObstacle+0x10>
    1582:	20 e0       	ldi	r18, 0x00	; 0
	{	
		return true;
	}

	return false;
}
    1584:	82 2f       	mov	r24, r18
    1586:	08 95       	ret

00001588 <isTooNearToObstacle>:

bool isTooNearToObstacle()
{
	uint16_t distance = AdcConvert(2);
    1588:	82 e0       	ldi	r24, 0x02	; 2
    158a:	0e 94 50 00 	call	0xa0	; 0xa0 <AdcConvert>

	if (distance > (uint16_t)400)
    158e:	21 e0       	ldi	r18, 0x01	; 1
    1590:	81 39       	cpi	r24, 0x91	; 145
    1592:	91 40       	sbci	r25, 0x01	; 1
    1594:	08 f4       	brcc	.+2      	; 0x1598 <isTooNearToObstacle+0x10>
    1596:	20 e0       	ldi	r18, 0x00	; 0
	{
		return true;
	}

	return false;
}
    1598:	82 2f       	mov	r24, r18
    159a:	08 95       	ret

0000159c <arcTowardsObstacle>:

void arcTowardsObstacle()
{
	driveArc(5, DIRECTION_ARC_LEFT, 70, 80);
    159c:	20 e5       	ldi	r18, 0x50	; 80
    159e:	46 e4       	ldi	r20, 0x46	; 70
    15a0:	60 e0       	ldi	r22, 0x00	; 0
    15a2:	85 e0       	ldi	r24, 0x05	; 5
    15a4:	0e 94 9c 00 	call	0x138	; 0x138 <driveArc>
    15a8:	08 95       	ret

000015aa <arcSharplyAwayFromObstacle>:
}

void arcSharplyAwayFromObstacle()
{
	driveArcOnAxis(5,DIRECTION_ARC_RIGHT,70);
    15aa:	46 e4       	ldi	r20, 0x46	; 70
    15ac:	61 e0       	ldi	r22, 0x01	; 1
    15ae:	85 e0       	ldi	r24, 0x05	; 5
    15b0:	0e 94 5c 00 	call	0xb8	; 0xb8 <driveArcOnAxis>
    15b4:	08 95       	ret

000015b6 <arcAwayFromObstacle>:
}

void arcAwayFromObstacle()
{
	driveArc(5, DIRECTION_ARC_RIGHT, 70, 90);
    15b6:	2a e5       	ldi	r18, 0x5A	; 90
    15b8:	46 e4       	ldi	r20, 0x46	; 70
    15ba:	61 e0       	ldi	r22, 0x01	; 1
    15bc:	85 e0       	ldi	r24, 0x05	; 5
    15be:	0e 94 9c 00 	call	0x138	; 0x138 <driveArc>
    15c2:	08 95       	ret

000015c4 <moveForward>:
}

void moveForward()
{
	driveArc(5, DIRECTION_ARC_RIGHT, 70, 0);
    15c4:	20 e0       	ldi	r18, 0x00	; 0
    15c6:	46 e4       	ldi	r20, 0x46	; 70
    15c8:	61 e0       	ldi	r22, 0x01	; 1
    15ca:	85 e0       	ldi	r24, 0x05	; 5
    15cc:	0e 94 9c 00 	call	0x138	; 0x138 <driveArc>
    15d0:	08 95       	ret

000015d2 <hasAlignedWithObstacle>:
}

bool hasAlignedWithObstacle()
{
	uint16_t distance = AdcConvert(2);
    15d2:	82 e0       	ldi	r24, 0x02	; 2
    15d4:	0e 94 50 00 	call	0xa0	; 0xa0 <AdcConvert>

	if (distance > 250)
    15d8:	21 e0       	ldi	r18, 0x01	; 1
    15da:	8b 3f       	cpi	r24, 0xFB	; 251
    15dc:	91 05       	cpc	r25, r1
    15de:	08 f4       	brcc	.+2      	; 0x15e2 <hasAlignedWithObstacle+0x10>
    15e0:	20 e0       	ldi	r18, 0x00	; 0
	{
		return true;
	}

	return false;
}
    15e2:	82 2f       	mov	r24, r18
    15e4:	08 95       	ret

000015e6 <alignWithObstacle>:

void alignWithObstacle()
{
	do 
	{
		driveArcOnAxis(50,DIRECTION_ARC_RIGHT, 65);
    15e6:	41 e4       	ldi	r20, 0x41	; 65
    15e8:	61 e0       	ldi	r22, 0x01	; 1
    15ea:	82 e3       	ldi	r24, 0x32	; 50
    15ec:	0e 94 5c 00 	call	0xb8	; 0xb8 <driveArcOnAxis>
	} while (hasAlignedWithObstacle() ==  false);
    15f0:	0e 94 e9 0a 	call	0x15d2	; 0x15d2 <hasAlignedWithObstacle>
    15f4:	88 23       	and	r24, r24
    15f6:	b9 f3       	breq	.-18     	; 0x15e6 <alignWithObstacle>
}
    15f8:	08 95       	ret

000015fa <isExtremelyNearToObstacle>:
	return false;
}

bool isExtremelyNearToObstacle()
{
	uint16_t distance = AdcConvert(2);
    15fa:	82 e0       	ldi	r24, 0x02	; 2
    15fc:	0e 94 50 00 	call	0xa0	; 0xa0 <AdcConvert>

	if (distance > (uint16_t)500)
    1600:	21 e0       	ldi	r18, 0x01	; 1
    1602:	85 3f       	cpi	r24, 0xF5	; 245
    1604:	91 40       	sbci	r25, 0x01	; 1
    1606:	08 f4       	brcc	.+2      	; 0x160a <isExtremelyNearToObstacle+0x10>
    1608:	20 e0       	ldi	r18, 0x00	; 0
	{
		return true;
	}

	return false;
    160a:	82 2f       	mov	r24, r18
    160c:	08 95       	ret

0000160e <runObstacle>:

void runObstacle()
{
	do 
	{
		if(obstacleDetectedInFront())
    160e:	0e 94 b0 0a 	call	0x1560	; 0x1560 <obstacleDetectedInFront>
    1612:	88 23       	and	r24, r24
    1614:	19 f0       	breq	.+6      	; 0x161c <runObstacle+0xe>
		{
			alignWithObstacle();
    1616:	0e 94 f3 0a 	call	0x15e6	; 0x15e6 <alignWithObstacle>
    161a:	17 c0       	rjmp	.+46     	; 0x164a <runObstacle+0x3c>
		}
		else if(isTooFarFromObstacle())
    161c:	0e 94 ba 0a 	call	0x1574	; 0x1574 <isTooFarFromObstacle>
    1620:	88 23       	and	r24, r24
    1622:	19 f0       	breq	.+6      	; 0x162a <runObstacle+0x1c>
		{
			arcTowardsObstacle();
    1624:	0e 94 ce 0a 	call	0x159c	; 0x159c <arcTowardsObstacle>
    1628:	10 c0       	rjmp	.+32     	; 0x164a <runObstacle+0x3c>
		}
		else if(isExtremelyNearToObstacle())
    162a:	0e 94 fd 0a 	call	0x15fa	; 0x15fa <isExtremelyNearToObstacle>
    162e:	88 23       	and	r24, r24
    1630:	19 f0       	breq	.+6      	; 0x1638 <runObstacle+0x2a>
		{
			arcSharplyAwayFromObstacle();
    1632:	0e 94 d5 0a 	call	0x15aa	; 0x15aa <arcSharplyAwayFromObstacle>
    1636:	09 c0       	rjmp	.+18     	; 0x164a <runObstacle+0x3c>
		}
		else if(isTooNearToObstacle())
    1638:	0e 94 c4 0a 	call	0x1588	; 0x1588 <isTooNearToObstacle>
    163c:	88 23       	and	r24, r24
    163e:	19 f0       	breq	.+6      	; 0x1646 <runObstacle+0x38>
		{
			arcAwayFromObstacle();
    1640:	0e 94 db 0a 	call	0x15b6	; 0x15b6 <arcAwayFromObstacle>
    1644:	02 c0       	rjmp	.+4      	; 0x164a <runObstacle+0x3c>
		}
		else 
		{
			moveForward();
    1646:	0e 94 e2 0a 	call	0x15c4	; 0x15c4 <moveForward>
		}

	} while (!hasLineBeenFound());
    164a:	0e 94 a0 0a 	call	0x1540	; 0x1540 <hasLineBeenFound>
    164e:	88 23       	and	r24, r24
    1650:	f1 f2       	breq	.-68     	; 0x160e <runObstacle>
}
    1652:	08 95       	ret

00001654 <__subsf3>:
    1654:	50 58       	subi	r21, 0x80	; 128

00001656 <__addsf3>:
    1656:	bb 27       	eor	r27, r27
    1658:	aa 27       	eor	r26, r26
    165a:	0e 94 42 0b 	call	0x1684	; 0x1684 <__addsf3x>
    165e:	0c 94 21 0c 	jmp	0x1842	; 0x1842 <__fp_round>
    1662:	0e 94 13 0c 	call	0x1826	; 0x1826 <__fp_pscA>
    1666:	38 f0       	brcs	.+14     	; 0x1676 <__addsf3+0x20>
    1668:	0e 94 1a 0c 	call	0x1834	; 0x1834 <__fp_pscB>
    166c:	20 f0       	brcs	.+8      	; 0x1676 <__addsf3+0x20>
    166e:	39 f4       	brne	.+14     	; 0x167e <__addsf3+0x28>
    1670:	9f 3f       	cpi	r25, 0xFF	; 255
    1672:	19 f4       	brne	.+6      	; 0x167a <__addsf3+0x24>
    1674:	26 f4       	brtc	.+8      	; 0x167e <__addsf3+0x28>
    1676:	0c 94 10 0c 	jmp	0x1820	; 0x1820 <__fp_nan>
    167a:	0e f4       	brtc	.+2      	; 0x167e <__addsf3+0x28>
    167c:	e0 95       	com	r30
    167e:	e7 fb       	bst	r30, 7
    1680:	0c 94 0a 0c 	jmp	0x1814	; 0x1814 <__fp_inf>

00001684 <__addsf3x>:
    1684:	e9 2f       	mov	r30, r25
    1686:	0e 94 32 0c 	call	0x1864	; 0x1864 <__fp_split3>
    168a:	58 f3       	brcs	.-42     	; 0x1662 <__addsf3+0xc>
    168c:	ba 17       	cp	r27, r26
    168e:	62 07       	cpc	r22, r18
    1690:	73 07       	cpc	r23, r19
    1692:	84 07       	cpc	r24, r20
    1694:	95 07       	cpc	r25, r21
    1696:	20 f0       	brcs	.+8      	; 0x16a0 <__addsf3x+0x1c>
    1698:	79 f4       	brne	.+30     	; 0x16b8 <__addsf3x+0x34>
    169a:	a6 f5       	brtc	.+104    	; 0x1704 <__addsf3x+0x80>
    169c:	0c 94 54 0c 	jmp	0x18a8	; 0x18a8 <__fp_zero>
    16a0:	0e f4       	brtc	.+2      	; 0x16a4 <__addsf3x+0x20>
    16a2:	e0 95       	com	r30
    16a4:	0b 2e       	mov	r0, r27
    16a6:	ba 2f       	mov	r27, r26
    16a8:	a0 2d       	mov	r26, r0
    16aa:	0b 01       	movw	r0, r22
    16ac:	b9 01       	movw	r22, r18
    16ae:	90 01       	movw	r18, r0
    16b0:	0c 01       	movw	r0, r24
    16b2:	ca 01       	movw	r24, r20
    16b4:	a0 01       	movw	r20, r0
    16b6:	11 24       	eor	r1, r1
    16b8:	ff 27       	eor	r31, r31
    16ba:	59 1b       	sub	r21, r25
    16bc:	99 f0       	breq	.+38     	; 0x16e4 <__addsf3x+0x60>
    16be:	59 3f       	cpi	r21, 0xF9	; 249
    16c0:	50 f4       	brcc	.+20     	; 0x16d6 <__addsf3x+0x52>
    16c2:	50 3e       	cpi	r21, 0xE0	; 224
    16c4:	68 f1       	brcs	.+90     	; 0x1720 <__addsf3x+0x9c>
    16c6:	1a 16       	cp	r1, r26
    16c8:	f0 40       	sbci	r31, 0x00	; 0
    16ca:	a2 2f       	mov	r26, r18
    16cc:	23 2f       	mov	r18, r19
    16ce:	34 2f       	mov	r19, r20
    16d0:	44 27       	eor	r20, r20
    16d2:	58 5f       	subi	r21, 0xF8	; 248
    16d4:	f3 cf       	rjmp	.-26     	; 0x16bc <__addsf3x+0x38>
    16d6:	46 95       	lsr	r20
    16d8:	37 95       	ror	r19
    16da:	27 95       	ror	r18
    16dc:	a7 95       	ror	r26
    16de:	f0 40       	sbci	r31, 0x00	; 0
    16e0:	53 95       	inc	r21
    16e2:	c9 f7       	brne	.-14     	; 0x16d6 <__addsf3x+0x52>
    16e4:	7e f4       	brtc	.+30     	; 0x1704 <__addsf3x+0x80>
    16e6:	1f 16       	cp	r1, r31
    16e8:	ba 0b       	sbc	r27, r26
    16ea:	62 0b       	sbc	r22, r18
    16ec:	73 0b       	sbc	r23, r19
    16ee:	84 0b       	sbc	r24, r20
    16f0:	ba f0       	brmi	.+46     	; 0x1720 <__addsf3x+0x9c>
    16f2:	91 50       	subi	r25, 0x01	; 1
    16f4:	a1 f0       	breq	.+40     	; 0x171e <__addsf3x+0x9a>
    16f6:	ff 0f       	add	r31, r31
    16f8:	bb 1f       	adc	r27, r27
    16fa:	66 1f       	adc	r22, r22
    16fc:	77 1f       	adc	r23, r23
    16fe:	88 1f       	adc	r24, r24
    1700:	c2 f7       	brpl	.-16     	; 0x16f2 <__addsf3x+0x6e>
    1702:	0e c0       	rjmp	.+28     	; 0x1720 <__addsf3x+0x9c>
    1704:	ba 0f       	add	r27, r26
    1706:	62 1f       	adc	r22, r18
    1708:	73 1f       	adc	r23, r19
    170a:	84 1f       	adc	r24, r20
    170c:	48 f4       	brcc	.+18     	; 0x1720 <__addsf3x+0x9c>
    170e:	87 95       	ror	r24
    1710:	77 95       	ror	r23
    1712:	67 95       	ror	r22
    1714:	b7 95       	ror	r27
    1716:	f7 95       	ror	r31
    1718:	9e 3f       	cpi	r25, 0xFE	; 254
    171a:	08 f0       	brcs	.+2      	; 0x171e <__addsf3x+0x9a>
    171c:	b0 cf       	rjmp	.-160    	; 0x167e <__addsf3+0x28>
    171e:	93 95       	inc	r25
    1720:	88 0f       	add	r24, r24
    1722:	08 f0       	brcs	.+2      	; 0x1726 <__addsf3x+0xa2>
    1724:	99 27       	eor	r25, r25
    1726:	ee 0f       	add	r30, r30
    1728:	97 95       	ror	r25
    172a:	87 95       	ror	r24
    172c:	08 95       	ret

0000172e <__fixsfsi>:
    172e:	0e 94 9e 0b 	call	0x173c	; 0x173c <__fixunssfsi>
    1732:	68 94       	set
    1734:	b1 11       	cpse	r27, r1
    1736:	0c 94 55 0c 	jmp	0x18aa	; 0x18aa <__fp_szero>
    173a:	08 95       	ret

0000173c <__fixunssfsi>:
    173c:	0e 94 3a 0c 	call	0x1874	; 0x1874 <__fp_splitA>
    1740:	88 f0       	brcs	.+34     	; 0x1764 <__fixunssfsi+0x28>
    1742:	9f 57       	subi	r25, 0x7F	; 127
    1744:	98 f0       	brcs	.+38     	; 0x176c <__fixunssfsi+0x30>
    1746:	b9 2f       	mov	r27, r25
    1748:	99 27       	eor	r25, r25
    174a:	b7 51       	subi	r27, 0x17	; 23
    174c:	b0 f0       	brcs	.+44     	; 0x177a <__fixunssfsi+0x3e>
    174e:	e1 f0       	breq	.+56     	; 0x1788 <__fixunssfsi+0x4c>
    1750:	66 0f       	add	r22, r22
    1752:	77 1f       	adc	r23, r23
    1754:	88 1f       	adc	r24, r24
    1756:	99 1f       	adc	r25, r25
    1758:	1a f0       	brmi	.+6      	; 0x1760 <__fixunssfsi+0x24>
    175a:	ba 95       	dec	r27
    175c:	c9 f7       	brne	.-14     	; 0x1750 <__fixunssfsi+0x14>
    175e:	14 c0       	rjmp	.+40     	; 0x1788 <__fixunssfsi+0x4c>
    1760:	b1 30       	cpi	r27, 0x01	; 1
    1762:	91 f0       	breq	.+36     	; 0x1788 <__fixunssfsi+0x4c>
    1764:	0e 94 54 0c 	call	0x18a8	; 0x18a8 <__fp_zero>
    1768:	b1 e0       	ldi	r27, 0x01	; 1
    176a:	08 95       	ret
    176c:	0c 94 54 0c 	jmp	0x18a8	; 0x18a8 <__fp_zero>
    1770:	67 2f       	mov	r22, r23
    1772:	78 2f       	mov	r23, r24
    1774:	88 27       	eor	r24, r24
    1776:	b8 5f       	subi	r27, 0xF8	; 248
    1778:	39 f0       	breq	.+14     	; 0x1788 <__fixunssfsi+0x4c>
    177a:	b9 3f       	cpi	r27, 0xF9	; 249
    177c:	cc f3       	brlt	.-14     	; 0x1770 <__fixunssfsi+0x34>
    177e:	86 95       	lsr	r24
    1780:	77 95       	ror	r23
    1782:	67 95       	ror	r22
    1784:	b3 95       	inc	r27
    1786:	d9 f7       	brne	.-10     	; 0x177e <__fixunssfsi+0x42>
    1788:	3e f4       	brtc	.+14     	; 0x1798 <__fixunssfsi+0x5c>
    178a:	90 95       	com	r25
    178c:	80 95       	com	r24
    178e:	70 95       	com	r23
    1790:	61 95       	neg	r22
    1792:	7f 4f       	sbci	r23, 0xFF	; 255
    1794:	8f 4f       	sbci	r24, 0xFF	; 255
    1796:	9f 4f       	sbci	r25, 0xFF	; 255
    1798:	08 95       	ret

0000179a <__floatunsisf>:
    179a:	e8 94       	clt
    179c:	09 c0       	rjmp	.+18     	; 0x17b0 <__floatsisf+0x12>

0000179e <__floatsisf>:
    179e:	97 fb       	bst	r25, 7
    17a0:	3e f4       	brtc	.+14     	; 0x17b0 <__floatsisf+0x12>
    17a2:	90 95       	com	r25
    17a4:	80 95       	com	r24
    17a6:	70 95       	com	r23
    17a8:	61 95       	neg	r22
    17aa:	7f 4f       	sbci	r23, 0xFF	; 255
    17ac:	8f 4f       	sbci	r24, 0xFF	; 255
    17ae:	9f 4f       	sbci	r25, 0xFF	; 255
    17b0:	99 23       	and	r25, r25
    17b2:	a9 f0       	breq	.+42     	; 0x17de <__floatsisf+0x40>
    17b4:	f9 2f       	mov	r31, r25
    17b6:	96 e9       	ldi	r25, 0x96	; 150
    17b8:	bb 27       	eor	r27, r27
    17ba:	93 95       	inc	r25
    17bc:	f6 95       	lsr	r31
    17be:	87 95       	ror	r24
    17c0:	77 95       	ror	r23
    17c2:	67 95       	ror	r22
    17c4:	b7 95       	ror	r27
    17c6:	f1 11       	cpse	r31, r1
    17c8:	f8 cf       	rjmp	.-16     	; 0x17ba <__floatsisf+0x1c>
    17ca:	fa f4       	brpl	.+62     	; 0x180a <__floatsisf+0x6c>
    17cc:	bb 0f       	add	r27, r27
    17ce:	11 f4       	brne	.+4      	; 0x17d4 <__floatsisf+0x36>
    17d0:	60 ff       	sbrs	r22, 0
    17d2:	1b c0       	rjmp	.+54     	; 0x180a <__floatsisf+0x6c>
    17d4:	6f 5f       	subi	r22, 0xFF	; 255
    17d6:	7f 4f       	sbci	r23, 0xFF	; 255
    17d8:	8f 4f       	sbci	r24, 0xFF	; 255
    17da:	9f 4f       	sbci	r25, 0xFF	; 255
    17dc:	16 c0       	rjmp	.+44     	; 0x180a <__floatsisf+0x6c>
    17de:	88 23       	and	r24, r24
    17e0:	11 f0       	breq	.+4      	; 0x17e6 <__floatsisf+0x48>
    17e2:	96 e9       	ldi	r25, 0x96	; 150
    17e4:	11 c0       	rjmp	.+34     	; 0x1808 <__floatsisf+0x6a>
    17e6:	77 23       	and	r23, r23
    17e8:	21 f0       	breq	.+8      	; 0x17f2 <__floatsisf+0x54>
    17ea:	9e e8       	ldi	r25, 0x8E	; 142
    17ec:	87 2f       	mov	r24, r23
    17ee:	76 2f       	mov	r23, r22
    17f0:	05 c0       	rjmp	.+10     	; 0x17fc <__floatsisf+0x5e>
    17f2:	66 23       	and	r22, r22
    17f4:	71 f0       	breq	.+28     	; 0x1812 <__floatsisf+0x74>
    17f6:	96 e8       	ldi	r25, 0x86	; 134
    17f8:	86 2f       	mov	r24, r22
    17fa:	70 e0       	ldi	r23, 0x00	; 0
    17fc:	60 e0       	ldi	r22, 0x00	; 0
    17fe:	2a f0       	brmi	.+10     	; 0x180a <__floatsisf+0x6c>
    1800:	9a 95       	dec	r25
    1802:	66 0f       	add	r22, r22
    1804:	77 1f       	adc	r23, r23
    1806:	88 1f       	adc	r24, r24
    1808:	da f7       	brpl	.-10     	; 0x1800 <__floatsisf+0x62>
    180a:	88 0f       	add	r24, r24
    180c:	96 95       	lsr	r25
    180e:	87 95       	ror	r24
    1810:	97 f9       	bld	r25, 7
    1812:	08 95       	ret

00001814 <__fp_inf>:
    1814:	97 f9       	bld	r25, 7
    1816:	9f 67       	ori	r25, 0x7F	; 127
    1818:	80 e8       	ldi	r24, 0x80	; 128
    181a:	70 e0       	ldi	r23, 0x00	; 0
    181c:	60 e0       	ldi	r22, 0x00	; 0
    181e:	08 95       	ret

00001820 <__fp_nan>:
    1820:	9f ef       	ldi	r25, 0xFF	; 255
    1822:	80 ec       	ldi	r24, 0xC0	; 192
    1824:	08 95       	ret

00001826 <__fp_pscA>:
    1826:	00 24       	eor	r0, r0
    1828:	0a 94       	dec	r0
    182a:	16 16       	cp	r1, r22
    182c:	17 06       	cpc	r1, r23
    182e:	18 06       	cpc	r1, r24
    1830:	09 06       	cpc	r0, r25
    1832:	08 95       	ret

00001834 <__fp_pscB>:
    1834:	00 24       	eor	r0, r0
    1836:	0a 94       	dec	r0
    1838:	12 16       	cp	r1, r18
    183a:	13 06       	cpc	r1, r19
    183c:	14 06       	cpc	r1, r20
    183e:	05 06       	cpc	r0, r21
    1840:	08 95       	ret

00001842 <__fp_round>:
    1842:	09 2e       	mov	r0, r25
    1844:	03 94       	inc	r0
    1846:	00 0c       	add	r0, r0
    1848:	11 f4       	brne	.+4      	; 0x184e <__fp_round+0xc>
    184a:	88 23       	and	r24, r24
    184c:	52 f0       	brmi	.+20     	; 0x1862 <__fp_round+0x20>
    184e:	bb 0f       	add	r27, r27
    1850:	40 f4       	brcc	.+16     	; 0x1862 <__fp_round+0x20>
    1852:	bf 2b       	or	r27, r31
    1854:	11 f4       	brne	.+4      	; 0x185a <__fp_round+0x18>
    1856:	60 ff       	sbrs	r22, 0
    1858:	04 c0       	rjmp	.+8      	; 0x1862 <__fp_round+0x20>
    185a:	6f 5f       	subi	r22, 0xFF	; 255
    185c:	7f 4f       	sbci	r23, 0xFF	; 255
    185e:	8f 4f       	sbci	r24, 0xFF	; 255
    1860:	9f 4f       	sbci	r25, 0xFF	; 255
    1862:	08 95       	ret

00001864 <__fp_split3>:
    1864:	57 fd       	sbrc	r21, 7
    1866:	90 58       	subi	r25, 0x80	; 128
    1868:	44 0f       	add	r20, r20
    186a:	55 1f       	adc	r21, r21
    186c:	59 f0       	breq	.+22     	; 0x1884 <__fp_splitA+0x10>
    186e:	5f 3f       	cpi	r21, 0xFF	; 255
    1870:	71 f0       	breq	.+28     	; 0x188e <__fp_splitA+0x1a>
    1872:	47 95       	ror	r20

00001874 <__fp_splitA>:
    1874:	88 0f       	add	r24, r24
    1876:	97 fb       	bst	r25, 7
    1878:	99 1f       	adc	r25, r25
    187a:	61 f0       	breq	.+24     	; 0x1894 <__fp_splitA+0x20>
    187c:	9f 3f       	cpi	r25, 0xFF	; 255
    187e:	79 f0       	breq	.+30     	; 0x189e <__fp_splitA+0x2a>
    1880:	87 95       	ror	r24
    1882:	08 95       	ret
    1884:	12 16       	cp	r1, r18
    1886:	13 06       	cpc	r1, r19
    1888:	14 06       	cpc	r1, r20
    188a:	55 1f       	adc	r21, r21
    188c:	f2 cf       	rjmp	.-28     	; 0x1872 <__fp_split3+0xe>
    188e:	46 95       	lsr	r20
    1890:	f1 df       	rcall	.-30     	; 0x1874 <__fp_splitA>
    1892:	08 c0       	rjmp	.+16     	; 0x18a4 <__fp_splitA+0x30>
    1894:	16 16       	cp	r1, r22
    1896:	17 06       	cpc	r1, r23
    1898:	18 06       	cpc	r1, r24
    189a:	99 1f       	adc	r25, r25
    189c:	f1 cf       	rjmp	.-30     	; 0x1880 <__fp_splitA+0xc>
    189e:	86 95       	lsr	r24
    18a0:	71 05       	cpc	r23, r1
    18a2:	61 05       	cpc	r22, r1
    18a4:	08 94       	sec
    18a6:	08 95       	ret

000018a8 <__fp_zero>:
    18a8:	e8 94       	clt

000018aa <__fp_szero>:
    18aa:	bb 27       	eor	r27, r27
    18ac:	66 27       	eor	r22, r22
    18ae:	77 27       	eor	r23, r23
    18b0:	cb 01       	movw	r24, r22
    18b2:	97 f9       	bld	r25, 7
    18b4:	08 95       	ret

000018b6 <__mulsf3>:
    18b6:	0e 94 6e 0c 	call	0x18dc	; 0x18dc <__mulsf3x>
    18ba:	0c 94 21 0c 	jmp	0x1842	; 0x1842 <__fp_round>
    18be:	0e 94 13 0c 	call	0x1826	; 0x1826 <__fp_pscA>
    18c2:	38 f0       	brcs	.+14     	; 0x18d2 <__mulsf3+0x1c>
    18c4:	0e 94 1a 0c 	call	0x1834	; 0x1834 <__fp_pscB>
    18c8:	20 f0       	brcs	.+8      	; 0x18d2 <__mulsf3+0x1c>
    18ca:	95 23       	and	r25, r21
    18cc:	11 f0       	breq	.+4      	; 0x18d2 <__mulsf3+0x1c>
    18ce:	0c 94 0a 0c 	jmp	0x1814	; 0x1814 <__fp_inf>
    18d2:	0c 94 10 0c 	jmp	0x1820	; 0x1820 <__fp_nan>
    18d6:	11 24       	eor	r1, r1
    18d8:	0c 94 55 0c 	jmp	0x18aa	; 0x18aa <__fp_szero>

000018dc <__mulsf3x>:
    18dc:	0e 94 32 0c 	call	0x1864	; 0x1864 <__fp_split3>
    18e0:	70 f3       	brcs	.-36     	; 0x18be <__mulsf3+0x8>

000018e2 <__mulsf3_pse>:
    18e2:	95 9f       	mul	r25, r21
    18e4:	c1 f3       	breq	.-16     	; 0x18d6 <__mulsf3+0x20>
    18e6:	95 0f       	add	r25, r21
    18e8:	50 e0       	ldi	r21, 0x00	; 0
    18ea:	55 1f       	adc	r21, r21
    18ec:	62 9f       	mul	r22, r18
    18ee:	f0 01       	movw	r30, r0
    18f0:	72 9f       	mul	r23, r18
    18f2:	bb 27       	eor	r27, r27
    18f4:	f0 0d       	add	r31, r0
    18f6:	b1 1d       	adc	r27, r1
    18f8:	63 9f       	mul	r22, r19
    18fa:	aa 27       	eor	r26, r26
    18fc:	f0 0d       	add	r31, r0
    18fe:	b1 1d       	adc	r27, r1
    1900:	aa 1f       	adc	r26, r26
    1902:	64 9f       	mul	r22, r20
    1904:	66 27       	eor	r22, r22
    1906:	b0 0d       	add	r27, r0
    1908:	a1 1d       	adc	r26, r1
    190a:	66 1f       	adc	r22, r22
    190c:	82 9f       	mul	r24, r18
    190e:	22 27       	eor	r18, r18
    1910:	b0 0d       	add	r27, r0
    1912:	a1 1d       	adc	r26, r1
    1914:	62 1f       	adc	r22, r18
    1916:	73 9f       	mul	r23, r19
    1918:	b0 0d       	add	r27, r0
    191a:	a1 1d       	adc	r26, r1
    191c:	62 1f       	adc	r22, r18
    191e:	83 9f       	mul	r24, r19
    1920:	a0 0d       	add	r26, r0
    1922:	61 1d       	adc	r22, r1
    1924:	22 1f       	adc	r18, r18
    1926:	74 9f       	mul	r23, r20
    1928:	33 27       	eor	r19, r19
    192a:	a0 0d       	add	r26, r0
    192c:	61 1d       	adc	r22, r1
    192e:	23 1f       	adc	r18, r19
    1930:	84 9f       	mul	r24, r20
    1932:	60 0d       	add	r22, r0
    1934:	21 1d       	adc	r18, r1
    1936:	82 2f       	mov	r24, r18
    1938:	76 2f       	mov	r23, r22
    193a:	6a 2f       	mov	r22, r26
    193c:	11 24       	eor	r1, r1
    193e:	9f 57       	subi	r25, 0x7F	; 127
    1940:	50 40       	sbci	r21, 0x00	; 0
    1942:	9a f0       	brmi	.+38     	; 0x196a <__mulsf3_pse+0x88>
    1944:	f1 f0       	breq	.+60     	; 0x1982 <__mulsf3_pse+0xa0>
    1946:	88 23       	and	r24, r24
    1948:	4a f0       	brmi	.+18     	; 0x195c <__mulsf3_pse+0x7a>
    194a:	ee 0f       	add	r30, r30
    194c:	ff 1f       	adc	r31, r31
    194e:	bb 1f       	adc	r27, r27
    1950:	66 1f       	adc	r22, r22
    1952:	77 1f       	adc	r23, r23
    1954:	88 1f       	adc	r24, r24
    1956:	91 50       	subi	r25, 0x01	; 1
    1958:	50 40       	sbci	r21, 0x00	; 0
    195a:	a9 f7       	brne	.-22     	; 0x1946 <__mulsf3_pse+0x64>
    195c:	9e 3f       	cpi	r25, 0xFE	; 254
    195e:	51 05       	cpc	r21, r1
    1960:	80 f0       	brcs	.+32     	; 0x1982 <__mulsf3_pse+0xa0>
    1962:	0c 94 0a 0c 	jmp	0x1814	; 0x1814 <__fp_inf>
    1966:	0c 94 55 0c 	jmp	0x18aa	; 0x18aa <__fp_szero>
    196a:	5f 3f       	cpi	r21, 0xFF	; 255
    196c:	e4 f3       	brlt	.-8      	; 0x1966 <__mulsf3_pse+0x84>
    196e:	98 3e       	cpi	r25, 0xE8	; 232
    1970:	d4 f3       	brlt	.-12     	; 0x1966 <__mulsf3_pse+0x84>
    1972:	86 95       	lsr	r24
    1974:	77 95       	ror	r23
    1976:	67 95       	ror	r22
    1978:	b7 95       	ror	r27
    197a:	f7 95       	ror	r31
    197c:	e7 95       	ror	r30
    197e:	9f 5f       	subi	r25, 0xFF	; 255
    1980:	c1 f7       	brne	.-16     	; 0x1972 <__mulsf3_pse+0x90>
    1982:	fe 2b       	or	r31, r30
    1984:	88 0f       	add	r24, r24
    1986:	91 1d       	adc	r25, r1
    1988:	96 95       	lsr	r25
    198a:	87 95       	ror	r24
    198c:	97 f9       	bld	r25, 7
    198e:	08 95       	ret

00001990 <__divmodhi4>:
    1990:	97 fb       	bst	r25, 7
    1992:	07 2e       	mov	r0, r23
    1994:	16 f4       	brtc	.+4      	; 0x199a <__divmodhi4+0xa>
    1996:	00 94       	com	r0
    1998:	07 d0       	rcall	.+14     	; 0x19a8 <__divmodhi4_neg1>
    199a:	77 fd       	sbrc	r23, 7
    199c:	09 d0       	rcall	.+18     	; 0x19b0 <__divmodhi4_neg2>
    199e:	0e 94 e2 0c 	call	0x19c4	; 0x19c4 <__udivmodhi4>
    19a2:	07 fc       	sbrc	r0, 7
    19a4:	05 d0       	rcall	.+10     	; 0x19b0 <__divmodhi4_neg2>
    19a6:	3e f4       	brtc	.+14     	; 0x19b6 <__divmodhi4_exit>

000019a8 <__divmodhi4_neg1>:
    19a8:	90 95       	com	r25
    19aa:	81 95       	neg	r24
    19ac:	9f 4f       	sbci	r25, 0xFF	; 255
    19ae:	08 95       	ret

000019b0 <__divmodhi4_neg2>:
    19b0:	70 95       	com	r23
    19b2:	61 95       	neg	r22
    19b4:	7f 4f       	sbci	r23, 0xFF	; 255

000019b6 <__divmodhi4_exit>:
    19b6:	08 95       	ret

000019b8 <__tablejump2__>:
    19b8:	ee 0f       	add	r30, r30
    19ba:	ff 1f       	adc	r31, r31
    19bc:	05 90       	lpm	r0, Z+
    19be:	f4 91       	lpm	r31, Z
    19c0:	e0 2d       	mov	r30, r0
    19c2:	09 94       	ijmp

000019c4 <__udivmodhi4>:
    19c4:	aa 1b       	sub	r26, r26
    19c6:	bb 1b       	sub	r27, r27
    19c8:	51 e1       	ldi	r21, 0x11	; 17
    19ca:	07 c0       	rjmp	.+14     	; 0x19da <__udivmodhi4_ep>

000019cc <__udivmodhi4_loop>:
    19cc:	aa 1f       	adc	r26, r26
    19ce:	bb 1f       	adc	r27, r27
    19d0:	a6 17       	cp	r26, r22
    19d2:	b7 07       	cpc	r27, r23
    19d4:	10 f0       	brcs	.+4      	; 0x19da <__udivmodhi4_ep>
    19d6:	a6 1b       	sub	r26, r22
    19d8:	b7 0b       	sbc	r27, r23

000019da <__udivmodhi4_ep>:
    19da:	88 1f       	adc	r24, r24
    19dc:	99 1f       	adc	r25, r25
    19de:	5a 95       	dec	r21
    19e0:	a9 f7       	brne	.-22     	; 0x19cc <__udivmodhi4_loop>
    19e2:	80 95       	com	r24
    19e4:	90 95       	com	r25
    19e6:	bc 01       	movw	r22, r24
    19e8:	cd 01       	movw	r24, r26
    19ea:	08 95       	ret

000019ec <sprintf>:
    19ec:	ae e0       	ldi	r26, 0x0E	; 14
    19ee:	b0 e0       	ldi	r27, 0x00	; 0
    19f0:	ec ef       	ldi	r30, 0xFC	; 252
    19f2:	fc e0       	ldi	r31, 0x0C	; 12
    19f4:	0c 94 a5 0f 	jmp	0x1f4a	; 0x1f4a <__prologue_saves__+0x1c>
    19f8:	0d 89       	ldd	r16, Y+21	; 0x15
    19fa:	1e 89       	ldd	r17, Y+22	; 0x16
    19fc:	86 e0       	ldi	r24, 0x06	; 6
    19fe:	8c 83       	std	Y+4, r24	; 0x04
    1a00:	1a 83       	std	Y+2, r17	; 0x02
    1a02:	09 83       	std	Y+1, r16	; 0x01
    1a04:	8f ef       	ldi	r24, 0xFF	; 255
    1a06:	9f e7       	ldi	r25, 0x7F	; 127
    1a08:	9e 83       	std	Y+6, r25	; 0x06
    1a0a:	8d 83       	std	Y+5, r24	; 0x05
    1a0c:	ae 01       	movw	r20, r28
    1a0e:	47 5e       	subi	r20, 0xE7	; 231
    1a10:	5f 4f       	sbci	r21, 0xFF	; 255
    1a12:	6f 89       	ldd	r22, Y+23	; 0x17
    1a14:	78 8d       	ldd	r23, Y+24	; 0x18
    1a16:	ce 01       	movw	r24, r28
    1a18:	01 96       	adiw	r24, 0x01	; 1
    1a1a:	0e 94 19 0d 	call	0x1a32	; 0x1a32 <vfprintf>
    1a1e:	2f 81       	ldd	r18, Y+7	; 0x07
    1a20:	38 85       	ldd	r19, Y+8	; 0x08
    1a22:	f8 01       	movw	r30, r16
    1a24:	e2 0f       	add	r30, r18
    1a26:	f3 1f       	adc	r31, r19
    1a28:	10 82       	st	Z, r1
    1a2a:	2e 96       	adiw	r28, 0x0e	; 14
    1a2c:	e4 e0       	ldi	r30, 0x04	; 4
    1a2e:	0c 94 c1 0f 	jmp	0x1f82	; 0x1f82 <__epilogue_restores__+0x1c>

00001a32 <vfprintf>:
    1a32:	ac e0       	ldi	r26, 0x0C	; 12
    1a34:	b0 e0       	ldi	r27, 0x00	; 0
    1a36:	ef e1       	ldi	r30, 0x1F	; 31
    1a38:	fd e0       	ldi	r31, 0x0D	; 13
    1a3a:	0c 94 97 0f 	jmp	0x1f2e	; 0x1f2e <__prologue_saves__>
    1a3e:	7c 01       	movw	r14, r24
    1a40:	6b 01       	movw	r12, r22
    1a42:	8a 01       	movw	r16, r20
    1a44:	fc 01       	movw	r30, r24
    1a46:	17 82       	std	Z+7, r1	; 0x07
    1a48:	16 82       	std	Z+6, r1	; 0x06
    1a4a:	83 81       	ldd	r24, Z+3	; 0x03
    1a4c:	81 ff       	sbrs	r24, 1
    1a4e:	bd c1       	rjmp	.+890    	; 0x1dca <vfprintf+0x398>
    1a50:	ce 01       	movw	r24, r28
    1a52:	01 96       	adiw	r24, 0x01	; 1
    1a54:	4c 01       	movw	r8, r24
    1a56:	f7 01       	movw	r30, r14
    1a58:	93 81       	ldd	r25, Z+3	; 0x03
    1a5a:	f6 01       	movw	r30, r12
    1a5c:	93 fd       	sbrc	r25, 3
    1a5e:	85 91       	lpm	r24, Z+
    1a60:	93 ff       	sbrs	r25, 3
    1a62:	81 91       	ld	r24, Z+
    1a64:	6f 01       	movw	r12, r30
    1a66:	88 23       	and	r24, r24
    1a68:	09 f4       	brne	.+2      	; 0x1a6c <vfprintf+0x3a>
    1a6a:	ab c1       	rjmp	.+854    	; 0x1dc2 <vfprintf+0x390>
    1a6c:	85 32       	cpi	r24, 0x25	; 37
    1a6e:	39 f4       	brne	.+14     	; 0x1a7e <vfprintf+0x4c>
    1a70:	93 fd       	sbrc	r25, 3
    1a72:	85 91       	lpm	r24, Z+
    1a74:	93 ff       	sbrs	r25, 3
    1a76:	81 91       	ld	r24, Z+
    1a78:	6f 01       	movw	r12, r30
    1a7a:	85 32       	cpi	r24, 0x25	; 37
    1a7c:	29 f4       	brne	.+10     	; 0x1a88 <vfprintf+0x56>
    1a7e:	b7 01       	movw	r22, r14
    1a80:	90 e0       	ldi	r25, 0x00	; 0
    1a82:	0e 94 01 0f 	call	0x1e02	; 0x1e02 <fputc>
    1a86:	e7 cf       	rjmp	.-50     	; 0x1a56 <vfprintf+0x24>
    1a88:	51 2c       	mov	r5, r1
    1a8a:	31 2c       	mov	r3, r1
    1a8c:	20 e0       	ldi	r18, 0x00	; 0
    1a8e:	20 32       	cpi	r18, 0x20	; 32
    1a90:	a0 f4       	brcc	.+40     	; 0x1aba <vfprintf+0x88>
    1a92:	8b 32       	cpi	r24, 0x2B	; 43
    1a94:	69 f0       	breq	.+26     	; 0x1ab0 <vfprintf+0x7e>
    1a96:	30 f4       	brcc	.+12     	; 0x1aa4 <vfprintf+0x72>
    1a98:	80 32       	cpi	r24, 0x20	; 32
    1a9a:	59 f0       	breq	.+22     	; 0x1ab2 <vfprintf+0x80>
    1a9c:	83 32       	cpi	r24, 0x23	; 35
    1a9e:	69 f4       	brne	.+26     	; 0x1aba <vfprintf+0x88>
    1aa0:	20 61       	ori	r18, 0x10	; 16
    1aa2:	2c c0       	rjmp	.+88     	; 0x1afc <vfprintf+0xca>
    1aa4:	8d 32       	cpi	r24, 0x2D	; 45
    1aa6:	39 f0       	breq	.+14     	; 0x1ab6 <vfprintf+0x84>
    1aa8:	80 33       	cpi	r24, 0x30	; 48
    1aaa:	39 f4       	brne	.+14     	; 0x1aba <vfprintf+0x88>
    1aac:	21 60       	ori	r18, 0x01	; 1
    1aae:	26 c0       	rjmp	.+76     	; 0x1afc <vfprintf+0xca>
    1ab0:	22 60       	ori	r18, 0x02	; 2
    1ab2:	24 60       	ori	r18, 0x04	; 4
    1ab4:	23 c0       	rjmp	.+70     	; 0x1afc <vfprintf+0xca>
    1ab6:	28 60       	ori	r18, 0x08	; 8
    1ab8:	21 c0       	rjmp	.+66     	; 0x1afc <vfprintf+0xca>
    1aba:	27 fd       	sbrc	r18, 7
    1abc:	27 c0       	rjmp	.+78     	; 0x1b0c <vfprintf+0xda>
    1abe:	30 ed       	ldi	r19, 0xD0	; 208
    1ac0:	38 0f       	add	r19, r24
    1ac2:	3a 30       	cpi	r19, 0x0A	; 10
    1ac4:	78 f4       	brcc	.+30     	; 0x1ae4 <vfprintf+0xb2>
    1ac6:	26 ff       	sbrs	r18, 6
    1ac8:	06 c0       	rjmp	.+12     	; 0x1ad6 <vfprintf+0xa4>
    1aca:	fa e0       	ldi	r31, 0x0A	; 10
    1acc:	5f 9e       	mul	r5, r31
    1ace:	30 0d       	add	r19, r0
    1ad0:	11 24       	eor	r1, r1
    1ad2:	53 2e       	mov	r5, r19
    1ad4:	13 c0       	rjmp	.+38     	; 0x1afc <vfprintf+0xca>
    1ad6:	8a e0       	ldi	r24, 0x0A	; 10
    1ad8:	38 9e       	mul	r3, r24
    1ada:	30 0d       	add	r19, r0
    1adc:	11 24       	eor	r1, r1
    1ade:	33 2e       	mov	r3, r19
    1ae0:	20 62       	ori	r18, 0x20	; 32
    1ae2:	0c c0       	rjmp	.+24     	; 0x1afc <vfprintf+0xca>
    1ae4:	8e 32       	cpi	r24, 0x2E	; 46
    1ae6:	21 f4       	brne	.+8      	; 0x1af0 <vfprintf+0xbe>
    1ae8:	26 fd       	sbrc	r18, 6
    1aea:	6b c1       	rjmp	.+726    	; 0x1dc2 <vfprintf+0x390>
    1aec:	20 64       	ori	r18, 0x40	; 64
    1aee:	06 c0       	rjmp	.+12     	; 0x1afc <vfprintf+0xca>
    1af0:	8c 36       	cpi	r24, 0x6C	; 108
    1af2:	11 f4       	brne	.+4      	; 0x1af8 <vfprintf+0xc6>
    1af4:	20 68       	ori	r18, 0x80	; 128
    1af6:	02 c0       	rjmp	.+4      	; 0x1afc <vfprintf+0xca>
    1af8:	88 36       	cpi	r24, 0x68	; 104
    1afa:	41 f4       	brne	.+16     	; 0x1b0c <vfprintf+0xda>
    1afc:	f6 01       	movw	r30, r12
    1afe:	93 fd       	sbrc	r25, 3
    1b00:	85 91       	lpm	r24, Z+
    1b02:	93 ff       	sbrs	r25, 3
    1b04:	81 91       	ld	r24, Z+
    1b06:	6f 01       	movw	r12, r30
    1b08:	81 11       	cpse	r24, r1
    1b0a:	c1 cf       	rjmp	.-126    	; 0x1a8e <vfprintf+0x5c>
    1b0c:	98 2f       	mov	r25, r24
    1b0e:	9f 7d       	andi	r25, 0xDF	; 223
    1b10:	95 54       	subi	r25, 0x45	; 69
    1b12:	93 30       	cpi	r25, 0x03	; 3
    1b14:	28 f4       	brcc	.+10     	; 0x1b20 <vfprintf+0xee>
    1b16:	0c 5f       	subi	r16, 0xFC	; 252
    1b18:	1f 4f       	sbci	r17, 0xFF	; 255
    1b1a:	ff e3       	ldi	r31, 0x3F	; 63
    1b1c:	f9 83       	std	Y+1, r31	; 0x01
    1b1e:	0d c0       	rjmp	.+26     	; 0x1b3a <vfprintf+0x108>
    1b20:	83 36       	cpi	r24, 0x63	; 99
    1b22:	31 f0       	breq	.+12     	; 0x1b30 <vfprintf+0xfe>
    1b24:	83 37       	cpi	r24, 0x73	; 115
    1b26:	71 f0       	breq	.+28     	; 0x1b44 <vfprintf+0x112>
    1b28:	83 35       	cpi	r24, 0x53	; 83
    1b2a:	09 f0       	breq	.+2      	; 0x1b2e <vfprintf+0xfc>
    1b2c:	5b c0       	rjmp	.+182    	; 0x1be4 <vfprintf+0x1b2>
    1b2e:	22 c0       	rjmp	.+68     	; 0x1b74 <vfprintf+0x142>
    1b30:	f8 01       	movw	r30, r16
    1b32:	80 81       	ld	r24, Z
    1b34:	89 83       	std	Y+1, r24	; 0x01
    1b36:	0e 5f       	subi	r16, 0xFE	; 254
    1b38:	1f 4f       	sbci	r17, 0xFF	; 255
    1b3a:	44 24       	eor	r4, r4
    1b3c:	43 94       	inc	r4
    1b3e:	51 2c       	mov	r5, r1
    1b40:	54 01       	movw	r10, r8
    1b42:	15 c0       	rjmp	.+42     	; 0x1b6e <vfprintf+0x13c>
    1b44:	38 01       	movw	r6, r16
    1b46:	f2 e0       	ldi	r31, 0x02	; 2
    1b48:	6f 0e       	add	r6, r31
    1b4a:	71 1c       	adc	r7, r1
    1b4c:	f8 01       	movw	r30, r16
    1b4e:	a0 80       	ld	r10, Z
    1b50:	b1 80       	ldd	r11, Z+1	; 0x01
    1b52:	26 ff       	sbrs	r18, 6
    1b54:	03 c0       	rjmp	.+6      	; 0x1b5c <vfprintf+0x12a>
    1b56:	65 2d       	mov	r22, r5
    1b58:	70 e0       	ldi	r23, 0x00	; 0
    1b5a:	02 c0       	rjmp	.+4      	; 0x1b60 <vfprintf+0x12e>
    1b5c:	6f ef       	ldi	r22, 0xFF	; 255
    1b5e:	7f ef       	ldi	r23, 0xFF	; 255
    1b60:	c5 01       	movw	r24, r10
    1b62:	2c 87       	std	Y+12, r18	; 0x0c
    1b64:	0e 94 f6 0e 	call	0x1dec	; 0x1dec <strnlen>
    1b68:	2c 01       	movw	r4, r24
    1b6a:	83 01       	movw	r16, r6
    1b6c:	2c 85       	ldd	r18, Y+12	; 0x0c
    1b6e:	2f 77       	andi	r18, 0x7F	; 127
    1b70:	22 2e       	mov	r2, r18
    1b72:	17 c0       	rjmp	.+46     	; 0x1ba2 <vfprintf+0x170>
    1b74:	38 01       	movw	r6, r16
    1b76:	f2 e0       	ldi	r31, 0x02	; 2
    1b78:	6f 0e       	add	r6, r31
    1b7a:	71 1c       	adc	r7, r1
    1b7c:	f8 01       	movw	r30, r16
    1b7e:	a0 80       	ld	r10, Z
    1b80:	b1 80       	ldd	r11, Z+1	; 0x01
    1b82:	26 ff       	sbrs	r18, 6
    1b84:	03 c0       	rjmp	.+6      	; 0x1b8c <vfprintf+0x15a>
    1b86:	65 2d       	mov	r22, r5
    1b88:	70 e0       	ldi	r23, 0x00	; 0
    1b8a:	02 c0       	rjmp	.+4      	; 0x1b90 <vfprintf+0x15e>
    1b8c:	6f ef       	ldi	r22, 0xFF	; 255
    1b8e:	7f ef       	ldi	r23, 0xFF	; 255
    1b90:	c5 01       	movw	r24, r10
    1b92:	2c 87       	std	Y+12, r18	; 0x0c
    1b94:	0e 94 eb 0e 	call	0x1dd6	; 0x1dd6 <strnlen_P>
    1b98:	2c 01       	movw	r4, r24
    1b9a:	2c 85       	ldd	r18, Y+12	; 0x0c
    1b9c:	20 68       	ori	r18, 0x80	; 128
    1b9e:	22 2e       	mov	r2, r18
    1ba0:	83 01       	movw	r16, r6
    1ba2:	23 fc       	sbrc	r2, 3
    1ba4:	1b c0       	rjmp	.+54     	; 0x1bdc <vfprintf+0x1aa>
    1ba6:	83 2d       	mov	r24, r3
    1ba8:	90 e0       	ldi	r25, 0x00	; 0
    1baa:	48 16       	cp	r4, r24
    1bac:	59 06       	cpc	r5, r25
    1bae:	b0 f4       	brcc	.+44     	; 0x1bdc <vfprintf+0x1aa>
    1bb0:	b7 01       	movw	r22, r14
    1bb2:	80 e2       	ldi	r24, 0x20	; 32
    1bb4:	90 e0       	ldi	r25, 0x00	; 0
    1bb6:	0e 94 01 0f 	call	0x1e02	; 0x1e02 <fputc>
    1bba:	3a 94       	dec	r3
    1bbc:	f4 cf       	rjmp	.-24     	; 0x1ba6 <vfprintf+0x174>
    1bbe:	f5 01       	movw	r30, r10
    1bc0:	27 fc       	sbrc	r2, 7
    1bc2:	85 91       	lpm	r24, Z+
    1bc4:	27 fe       	sbrs	r2, 7
    1bc6:	81 91       	ld	r24, Z+
    1bc8:	5f 01       	movw	r10, r30
    1bca:	b7 01       	movw	r22, r14
    1bcc:	90 e0       	ldi	r25, 0x00	; 0
    1bce:	0e 94 01 0f 	call	0x1e02	; 0x1e02 <fputc>
    1bd2:	31 10       	cpse	r3, r1
    1bd4:	3a 94       	dec	r3
    1bd6:	f1 e0       	ldi	r31, 0x01	; 1
    1bd8:	4f 1a       	sub	r4, r31
    1bda:	51 08       	sbc	r5, r1
    1bdc:	41 14       	cp	r4, r1
    1bde:	51 04       	cpc	r5, r1
    1be0:	71 f7       	brne	.-36     	; 0x1bbe <vfprintf+0x18c>
    1be2:	e5 c0       	rjmp	.+458    	; 0x1dae <vfprintf+0x37c>
    1be4:	84 36       	cpi	r24, 0x64	; 100
    1be6:	11 f0       	breq	.+4      	; 0x1bec <vfprintf+0x1ba>
    1be8:	89 36       	cpi	r24, 0x69	; 105
    1bea:	39 f5       	brne	.+78     	; 0x1c3a <vfprintf+0x208>
    1bec:	f8 01       	movw	r30, r16
    1bee:	27 ff       	sbrs	r18, 7
    1bf0:	07 c0       	rjmp	.+14     	; 0x1c00 <vfprintf+0x1ce>
    1bf2:	60 81       	ld	r22, Z
    1bf4:	71 81       	ldd	r23, Z+1	; 0x01
    1bf6:	82 81       	ldd	r24, Z+2	; 0x02
    1bf8:	93 81       	ldd	r25, Z+3	; 0x03
    1bfa:	0c 5f       	subi	r16, 0xFC	; 252
    1bfc:	1f 4f       	sbci	r17, 0xFF	; 255
    1bfe:	08 c0       	rjmp	.+16     	; 0x1c10 <vfprintf+0x1de>
    1c00:	60 81       	ld	r22, Z
    1c02:	71 81       	ldd	r23, Z+1	; 0x01
    1c04:	07 2e       	mov	r0, r23
    1c06:	00 0c       	add	r0, r0
    1c08:	88 0b       	sbc	r24, r24
    1c0a:	99 0b       	sbc	r25, r25
    1c0c:	0e 5f       	subi	r16, 0xFE	; 254
    1c0e:	1f 4f       	sbci	r17, 0xFF	; 255
    1c10:	2f 76       	andi	r18, 0x6F	; 111
    1c12:	72 2e       	mov	r7, r18
    1c14:	97 ff       	sbrs	r25, 7
    1c16:	09 c0       	rjmp	.+18     	; 0x1c2a <vfprintf+0x1f8>
    1c18:	90 95       	com	r25
    1c1a:	80 95       	com	r24
    1c1c:	70 95       	com	r23
    1c1e:	61 95       	neg	r22
    1c20:	7f 4f       	sbci	r23, 0xFF	; 255
    1c22:	8f 4f       	sbci	r24, 0xFF	; 255
    1c24:	9f 4f       	sbci	r25, 0xFF	; 255
    1c26:	20 68       	ori	r18, 0x80	; 128
    1c28:	72 2e       	mov	r7, r18
    1c2a:	2a e0       	ldi	r18, 0x0A	; 10
    1c2c:	30 e0       	ldi	r19, 0x00	; 0
    1c2e:	a4 01       	movw	r20, r8
    1c30:	0e 94 39 0f 	call	0x1e72	; 0x1e72 <__ultoa_invert>
    1c34:	a8 2e       	mov	r10, r24
    1c36:	a8 18       	sub	r10, r8
    1c38:	44 c0       	rjmp	.+136    	; 0x1cc2 <vfprintf+0x290>
    1c3a:	85 37       	cpi	r24, 0x75	; 117
    1c3c:	29 f4       	brne	.+10     	; 0x1c48 <vfprintf+0x216>
    1c3e:	2f 7e       	andi	r18, 0xEF	; 239
    1c40:	b2 2e       	mov	r11, r18
    1c42:	2a e0       	ldi	r18, 0x0A	; 10
    1c44:	30 e0       	ldi	r19, 0x00	; 0
    1c46:	25 c0       	rjmp	.+74     	; 0x1c92 <vfprintf+0x260>
    1c48:	f2 2f       	mov	r31, r18
    1c4a:	f9 7f       	andi	r31, 0xF9	; 249
    1c4c:	bf 2e       	mov	r11, r31
    1c4e:	8f 36       	cpi	r24, 0x6F	; 111
    1c50:	c1 f0       	breq	.+48     	; 0x1c82 <vfprintf+0x250>
    1c52:	18 f4       	brcc	.+6      	; 0x1c5a <vfprintf+0x228>
    1c54:	88 35       	cpi	r24, 0x58	; 88
    1c56:	79 f0       	breq	.+30     	; 0x1c76 <vfprintf+0x244>
    1c58:	b4 c0       	rjmp	.+360    	; 0x1dc2 <vfprintf+0x390>
    1c5a:	80 37       	cpi	r24, 0x70	; 112
    1c5c:	19 f0       	breq	.+6      	; 0x1c64 <vfprintf+0x232>
    1c5e:	88 37       	cpi	r24, 0x78	; 120
    1c60:	21 f0       	breq	.+8      	; 0x1c6a <vfprintf+0x238>
    1c62:	af c0       	rjmp	.+350    	; 0x1dc2 <vfprintf+0x390>
    1c64:	2f 2f       	mov	r18, r31
    1c66:	20 61       	ori	r18, 0x10	; 16
    1c68:	b2 2e       	mov	r11, r18
    1c6a:	b4 fe       	sbrs	r11, 4
    1c6c:	0d c0       	rjmp	.+26     	; 0x1c88 <vfprintf+0x256>
    1c6e:	8b 2d       	mov	r24, r11
    1c70:	84 60       	ori	r24, 0x04	; 4
    1c72:	b8 2e       	mov	r11, r24
    1c74:	09 c0       	rjmp	.+18     	; 0x1c88 <vfprintf+0x256>
    1c76:	24 ff       	sbrs	r18, 4
    1c78:	0a c0       	rjmp	.+20     	; 0x1c8e <vfprintf+0x25c>
    1c7a:	9f 2f       	mov	r25, r31
    1c7c:	96 60       	ori	r25, 0x06	; 6
    1c7e:	b9 2e       	mov	r11, r25
    1c80:	06 c0       	rjmp	.+12     	; 0x1c8e <vfprintf+0x25c>
    1c82:	28 e0       	ldi	r18, 0x08	; 8
    1c84:	30 e0       	ldi	r19, 0x00	; 0
    1c86:	05 c0       	rjmp	.+10     	; 0x1c92 <vfprintf+0x260>
    1c88:	20 e1       	ldi	r18, 0x10	; 16
    1c8a:	30 e0       	ldi	r19, 0x00	; 0
    1c8c:	02 c0       	rjmp	.+4      	; 0x1c92 <vfprintf+0x260>
    1c8e:	20 e1       	ldi	r18, 0x10	; 16
    1c90:	32 e0       	ldi	r19, 0x02	; 2
    1c92:	f8 01       	movw	r30, r16
    1c94:	b7 fe       	sbrs	r11, 7
    1c96:	07 c0       	rjmp	.+14     	; 0x1ca6 <vfprintf+0x274>
    1c98:	60 81       	ld	r22, Z
    1c9a:	71 81       	ldd	r23, Z+1	; 0x01
    1c9c:	82 81       	ldd	r24, Z+2	; 0x02
    1c9e:	93 81       	ldd	r25, Z+3	; 0x03
    1ca0:	0c 5f       	subi	r16, 0xFC	; 252
    1ca2:	1f 4f       	sbci	r17, 0xFF	; 255
    1ca4:	06 c0       	rjmp	.+12     	; 0x1cb2 <vfprintf+0x280>
    1ca6:	60 81       	ld	r22, Z
    1ca8:	71 81       	ldd	r23, Z+1	; 0x01
    1caa:	80 e0       	ldi	r24, 0x00	; 0
    1cac:	90 e0       	ldi	r25, 0x00	; 0
    1cae:	0e 5f       	subi	r16, 0xFE	; 254
    1cb0:	1f 4f       	sbci	r17, 0xFF	; 255
    1cb2:	a4 01       	movw	r20, r8
    1cb4:	0e 94 39 0f 	call	0x1e72	; 0x1e72 <__ultoa_invert>
    1cb8:	a8 2e       	mov	r10, r24
    1cba:	a8 18       	sub	r10, r8
    1cbc:	fb 2d       	mov	r31, r11
    1cbe:	ff 77       	andi	r31, 0x7F	; 127
    1cc0:	7f 2e       	mov	r7, r31
    1cc2:	76 fe       	sbrs	r7, 6
    1cc4:	0b c0       	rjmp	.+22     	; 0x1cdc <vfprintf+0x2aa>
    1cc6:	37 2d       	mov	r19, r7
    1cc8:	3e 7f       	andi	r19, 0xFE	; 254
    1cca:	a5 14       	cp	r10, r5
    1ccc:	50 f4       	brcc	.+20     	; 0x1ce2 <vfprintf+0x2b0>
    1cce:	74 fe       	sbrs	r7, 4
    1cd0:	0a c0       	rjmp	.+20     	; 0x1ce6 <vfprintf+0x2b4>
    1cd2:	72 fc       	sbrc	r7, 2
    1cd4:	08 c0       	rjmp	.+16     	; 0x1ce6 <vfprintf+0x2b4>
    1cd6:	37 2d       	mov	r19, r7
    1cd8:	3e 7e       	andi	r19, 0xEE	; 238
    1cda:	05 c0       	rjmp	.+10     	; 0x1ce6 <vfprintf+0x2b4>
    1cdc:	ba 2c       	mov	r11, r10
    1cde:	37 2d       	mov	r19, r7
    1ce0:	03 c0       	rjmp	.+6      	; 0x1ce8 <vfprintf+0x2b6>
    1ce2:	ba 2c       	mov	r11, r10
    1ce4:	01 c0       	rjmp	.+2      	; 0x1ce8 <vfprintf+0x2b6>
    1ce6:	b5 2c       	mov	r11, r5
    1ce8:	34 ff       	sbrs	r19, 4
    1cea:	0d c0       	rjmp	.+26     	; 0x1d06 <vfprintf+0x2d4>
    1cec:	fe 01       	movw	r30, r28
    1cee:	ea 0d       	add	r30, r10
    1cf0:	f1 1d       	adc	r31, r1
    1cf2:	80 81       	ld	r24, Z
    1cf4:	80 33       	cpi	r24, 0x30	; 48
    1cf6:	11 f4       	brne	.+4      	; 0x1cfc <vfprintf+0x2ca>
    1cf8:	39 7e       	andi	r19, 0xE9	; 233
    1cfa:	09 c0       	rjmp	.+18     	; 0x1d0e <vfprintf+0x2dc>
    1cfc:	32 ff       	sbrs	r19, 2
    1cfe:	06 c0       	rjmp	.+12     	; 0x1d0c <vfprintf+0x2da>
    1d00:	b3 94       	inc	r11
    1d02:	b3 94       	inc	r11
    1d04:	04 c0       	rjmp	.+8      	; 0x1d0e <vfprintf+0x2dc>
    1d06:	83 2f       	mov	r24, r19
    1d08:	86 78       	andi	r24, 0x86	; 134
    1d0a:	09 f0       	breq	.+2      	; 0x1d0e <vfprintf+0x2dc>
    1d0c:	b3 94       	inc	r11
    1d0e:	33 fd       	sbrc	r19, 3
    1d10:	13 c0       	rjmp	.+38     	; 0x1d38 <vfprintf+0x306>
    1d12:	30 ff       	sbrs	r19, 0
    1d14:	06 c0       	rjmp	.+12     	; 0x1d22 <vfprintf+0x2f0>
    1d16:	5a 2c       	mov	r5, r10
    1d18:	b3 14       	cp	r11, r3
    1d1a:	18 f4       	brcc	.+6      	; 0x1d22 <vfprintf+0x2f0>
    1d1c:	53 0c       	add	r5, r3
    1d1e:	5b 18       	sub	r5, r11
    1d20:	b3 2c       	mov	r11, r3
    1d22:	b3 14       	cp	r11, r3
    1d24:	68 f4       	brcc	.+26     	; 0x1d40 <vfprintf+0x30e>
    1d26:	b7 01       	movw	r22, r14
    1d28:	80 e2       	ldi	r24, 0x20	; 32
    1d2a:	90 e0       	ldi	r25, 0x00	; 0
    1d2c:	3c 87       	std	Y+12, r19	; 0x0c
    1d2e:	0e 94 01 0f 	call	0x1e02	; 0x1e02 <fputc>
    1d32:	b3 94       	inc	r11
    1d34:	3c 85       	ldd	r19, Y+12	; 0x0c
    1d36:	f5 cf       	rjmp	.-22     	; 0x1d22 <vfprintf+0x2f0>
    1d38:	b3 14       	cp	r11, r3
    1d3a:	10 f4       	brcc	.+4      	; 0x1d40 <vfprintf+0x30e>
    1d3c:	3b 18       	sub	r3, r11
    1d3e:	01 c0       	rjmp	.+2      	; 0x1d42 <vfprintf+0x310>
    1d40:	31 2c       	mov	r3, r1
    1d42:	34 ff       	sbrs	r19, 4
    1d44:	12 c0       	rjmp	.+36     	; 0x1d6a <vfprintf+0x338>
    1d46:	b7 01       	movw	r22, r14
    1d48:	80 e3       	ldi	r24, 0x30	; 48
    1d4a:	90 e0       	ldi	r25, 0x00	; 0
    1d4c:	3c 87       	std	Y+12, r19	; 0x0c
    1d4e:	0e 94 01 0f 	call	0x1e02	; 0x1e02 <fputc>
    1d52:	3c 85       	ldd	r19, Y+12	; 0x0c
    1d54:	32 ff       	sbrs	r19, 2
    1d56:	17 c0       	rjmp	.+46     	; 0x1d86 <vfprintf+0x354>
    1d58:	31 fd       	sbrc	r19, 1
    1d5a:	03 c0       	rjmp	.+6      	; 0x1d62 <vfprintf+0x330>
    1d5c:	88 e7       	ldi	r24, 0x78	; 120
    1d5e:	90 e0       	ldi	r25, 0x00	; 0
    1d60:	02 c0       	rjmp	.+4      	; 0x1d66 <vfprintf+0x334>
    1d62:	88 e5       	ldi	r24, 0x58	; 88
    1d64:	90 e0       	ldi	r25, 0x00	; 0
    1d66:	b7 01       	movw	r22, r14
    1d68:	0c c0       	rjmp	.+24     	; 0x1d82 <vfprintf+0x350>
    1d6a:	83 2f       	mov	r24, r19
    1d6c:	86 78       	andi	r24, 0x86	; 134
    1d6e:	59 f0       	breq	.+22     	; 0x1d86 <vfprintf+0x354>
    1d70:	31 ff       	sbrs	r19, 1
    1d72:	02 c0       	rjmp	.+4      	; 0x1d78 <vfprintf+0x346>
    1d74:	8b e2       	ldi	r24, 0x2B	; 43
    1d76:	01 c0       	rjmp	.+2      	; 0x1d7a <vfprintf+0x348>
    1d78:	80 e2       	ldi	r24, 0x20	; 32
    1d7a:	37 fd       	sbrc	r19, 7
    1d7c:	8d e2       	ldi	r24, 0x2D	; 45
    1d7e:	b7 01       	movw	r22, r14
    1d80:	90 e0       	ldi	r25, 0x00	; 0
    1d82:	0e 94 01 0f 	call	0x1e02	; 0x1e02 <fputc>
    1d86:	a5 14       	cp	r10, r5
    1d88:	38 f4       	brcc	.+14     	; 0x1d98 <vfprintf+0x366>
    1d8a:	b7 01       	movw	r22, r14
    1d8c:	80 e3       	ldi	r24, 0x30	; 48
    1d8e:	90 e0       	ldi	r25, 0x00	; 0
    1d90:	0e 94 01 0f 	call	0x1e02	; 0x1e02 <fputc>
    1d94:	5a 94       	dec	r5
    1d96:	f7 cf       	rjmp	.-18     	; 0x1d86 <vfprintf+0x354>
    1d98:	aa 94       	dec	r10
    1d9a:	f4 01       	movw	r30, r8
    1d9c:	ea 0d       	add	r30, r10
    1d9e:	f1 1d       	adc	r31, r1
    1da0:	80 81       	ld	r24, Z
    1da2:	b7 01       	movw	r22, r14
    1da4:	90 e0       	ldi	r25, 0x00	; 0
    1da6:	0e 94 01 0f 	call	0x1e02	; 0x1e02 <fputc>
    1daa:	a1 10       	cpse	r10, r1
    1dac:	f5 cf       	rjmp	.-22     	; 0x1d98 <vfprintf+0x366>
    1dae:	33 20       	and	r3, r3
    1db0:	09 f4       	brne	.+2      	; 0x1db4 <vfprintf+0x382>
    1db2:	51 ce       	rjmp	.-862    	; 0x1a56 <vfprintf+0x24>
    1db4:	b7 01       	movw	r22, r14
    1db6:	80 e2       	ldi	r24, 0x20	; 32
    1db8:	90 e0       	ldi	r25, 0x00	; 0
    1dba:	0e 94 01 0f 	call	0x1e02	; 0x1e02 <fputc>
    1dbe:	3a 94       	dec	r3
    1dc0:	f6 cf       	rjmp	.-20     	; 0x1dae <vfprintf+0x37c>
    1dc2:	f7 01       	movw	r30, r14
    1dc4:	86 81       	ldd	r24, Z+6	; 0x06
    1dc6:	97 81       	ldd	r25, Z+7	; 0x07
    1dc8:	02 c0       	rjmp	.+4      	; 0x1dce <vfprintf+0x39c>
    1dca:	8f ef       	ldi	r24, 0xFF	; 255
    1dcc:	9f ef       	ldi	r25, 0xFF	; 255
    1dce:	2c 96       	adiw	r28, 0x0c	; 12
    1dd0:	e2 e1       	ldi	r30, 0x12	; 18
    1dd2:	0c 94 b3 0f 	jmp	0x1f66	; 0x1f66 <__epilogue_restores__>

00001dd6 <strnlen_P>:
    1dd6:	fc 01       	movw	r30, r24
    1dd8:	05 90       	lpm	r0, Z+
    1dda:	61 50       	subi	r22, 0x01	; 1
    1ddc:	70 40       	sbci	r23, 0x00	; 0
    1dde:	01 10       	cpse	r0, r1
    1de0:	d8 f7       	brcc	.-10     	; 0x1dd8 <strnlen_P+0x2>
    1de2:	80 95       	com	r24
    1de4:	90 95       	com	r25
    1de6:	8e 0f       	add	r24, r30
    1de8:	9f 1f       	adc	r25, r31
    1dea:	08 95       	ret

00001dec <strnlen>:
    1dec:	fc 01       	movw	r30, r24
    1dee:	61 50       	subi	r22, 0x01	; 1
    1df0:	70 40       	sbci	r23, 0x00	; 0
    1df2:	01 90       	ld	r0, Z+
    1df4:	01 10       	cpse	r0, r1
    1df6:	d8 f7       	brcc	.-10     	; 0x1dee <strnlen+0x2>
    1df8:	80 95       	com	r24
    1dfa:	90 95       	com	r25
    1dfc:	8e 0f       	add	r24, r30
    1dfe:	9f 1f       	adc	r25, r31
    1e00:	08 95       	ret

00001e02 <fputc>:
    1e02:	0f 93       	push	r16
    1e04:	1f 93       	push	r17
    1e06:	cf 93       	push	r28
    1e08:	df 93       	push	r29
    1e0a:	fb 01       	movw	r30, r22
    1e0c:	23 81       	ldd	r18, Z+3	; 0x03
    1e0e:	21 fd       	sbrc	r18, 1
    1e10:	03 c0       	rjmp	.+6      	; 0x1e18 <fputc+0x16>
    1e12:	8f ef       	ldi	r24, 0xFF	; 255
    1e14:	9f ef       	ldi	r25, 0xFF	; 255
    1e16:	28 c0       	rjmp	.+80     	; 0x1e68 <fputc+0x66>
    1e18:	22 ff       	sbrs	r18, 2
    1e1a:	16 c0       	rjmp	.+44     	; 0x1e48 <fputc+0x46>
    1e1c:	46 81       	ldd	r20, Z+6	; 0x06
    1e1e:	57 81       	ldd	r21, Z+7	; 0x07
    1e20:	24 81       	ldd	r18, Z+4	; 0x04
    1e22:	35 81       	ldd	r19, Z+5	; 0x05
    1e24:	42 17       	cp	r20, r18
    1e26:	53 07       	cpc	r21, r19
    1e28:	44 f4       	brge	.+16     	; 0x1e3a <fputc+0x38>
    1e2a:	a0 81       	ld	r26, Z
    1e2c:	b1 81       	ldd	r27, Z+1	; 0x01
    1e2e:	9d 01       	movw	r18, r26
    1e30:	2f 5f       	subi	r18, 0xFF	; 255
    1e32:	3f 4f       	sbci	r19, 0xFF	; 255
    1e34:	31 83       	std	Z+1, r19	; 0x01
    1e36:	20 83       	st	Z, r18
    1e38:	8c 93       	st	X, r24
    1e3a:	26 81       	ldd	r18, Z+6	; 0x06
    1e3c:	37 81       	ldd	r19, Z+7	; 0x07
    1e3e:	2f 5f       	subi	r18, 0xFF	; 255
    1e40:	3f 4f       	sbci	r19, 0xFF	; 255
    1e42:	37 83       	std	Z+7, r19	; 0x07
    1e44:	26 83       	std	Z+6, r18	; 0x06
    1e46:	10 c0       	rjmp	.+32     	; 0x1e68 <fputc+0x66>
    1e48:	eb 01       	movw	r28, r22
    1e4a:	09 2f       	mov	r16, r25
    1e4c:	18 2f       	mov	r17, r24
    1e4e:	00 84       	ldd	r0, Z+8	; 0x08
    1e50:	f1 85       	ldd	r31, Z+9	; 0x09
    1e52:	e0 2d       	mov	r30, r0
    1e54:	09 95       	icall
    1e56:	89 2b       	or	r24, r25
    1e58:	e1 f6       	brne	.-72     	; 0x1e12 <fputc+0x10>
    1e5a:	8e 81       	ldd	r24, Y+6	; 0x06
    1e5c:	9f 81       	ldd	r25, Y+7	; 0x07
    1e5e:	01 96       	adiw	r24, 0x01	; 1
    1e60:	9f 83       	std	Y+7, r25	; 0x07
    1e62:	8e 83       	std	Y+6, r24	; 0x06
    1e64:	81 2f       	mov	r24, r17
    1e66:	90 2f       	mov	r25, r16
    1e68:	df 91       	pop	r29
    1e6a:	cf 91       	pop	r28
    1e6c:	1f 91       	pop	r17
    1e6e:	0f 91       	pop	r16
    1e70:	08 95       	ret

00001e72 <__ultoa_invert>:
    1e72:	fa 01       	movw	r30, r20
    1e74:	aa 27       	eor	r26, r26
    1e76:	28 30       	cpi	r18, 0x08	; 8
    1e78:	51 f1       	breq	.+84     	; 0x1ece <__ultoa_invert+0x5c>
    1e7a:	20 31       	cpi	r18, 0x10	; 16
    1e7c:	81 f1       	breq	.+96     	; 0x1ede <__ultoa_invert+0x6c>
    1e7e:	e8 94       	clt
    1e80:	6f 93       	push	r22
    1e82:	6e 7f       	andi	r22, 0xFE	; 254
    1e84:	6e 5f       	subi	r22, 0xFE	; 254
    1e86:	7f 4f       	sbci	r23, 0xFF	; 255
    1e88:	8f 4f       	sbci	r24, 0xFF	; 255
    1e8a:	9f 4f       	sbci	r25, 0xFF	; 255
    1e8c:	af 4f       	sbci	r26, 0xFF	; 255
    1e8e:	b1 e0       	ldi	r27, 0x01	; 1
    1e90:	3e d0       	rcall	.+124    	; 0x1f0e <__ultoa_invert+0x9c>
    1e92:	b4 e0       	ldi	r27, 0x04	; 4
    1e94:	3c d0       	rcall	.+120    	; 0x1f0e <__ultoa_invert+0x9c>
    1e96:	67 0f       	add	r22, r23
    1e98:	78 1f       	adc	r23, r24
    1e9a:	89 1f       	adc	r24, r25
    1e9c:	9a 1f       	adc	r25, r26
    1e9e:	a1 1d       	adc	r26, r1
    1ea0:	68 0f       	add	r22, r24
    1ea2:	79 1f       	adc	r23, r25
    1ea4:	8a 1f       	adc	r24, r26
    1ea6:	91 1d       	adc	r25, r1
    1ea8:	a1 1d       	adc	r26, r1
    1eaa:	6a 0f       	add	r22, r26
    1eac:	71 1d       	adc	r23, r1
    1eae:	81 1d       	adc	r24, r1
    1eb0:	91 1d       	adc	r25, r1
    1eb2:	a1 1d       	adc	r26, r1
    1eb4:	20 d0       	rcall	.+64     	; 0x1ef6 <__ultoa_invert+0x84>
    1eb6:	09 f4       	brne	.+2      	; 0x1eba <__ultoa_invert+0x48>
    1eb8:	68 94       	set
    1eba:	3f 91       	pop	r19
    1ebc:	2a e0       	ldi	r18, 0x0A	; 10
    1ebe:	26 9f       	mul	r18, r22
    1ec0:	11 24       	eor	r1, r1
    1ec2:	30 19       	sub	r19, r0
    1ec4:	30 5d       	subi	r19, 0xD0	; 208
    1ec6:	31 93       	st	Z+, r19
    1ec8:	de f6       	brtc	.-74     	; 0x1e80 <__ultoa_invert+0xe>
    1eca:	cf 01       	movw	r24, r30
    1ecc:	08 95       	ret
    1ece:	46 2f       	mov	r20, r22
    1ed0:	47 70       	andi	r20, 0x07	; 7
    1ed2:	40 5d       	subi	r20, 0xD0	; 208
    1ed4:	41 93       	st	Z+, r20
    1ed6:	b3 e0       	ldi	r27, 0x03	; 3
    1ed8:	0f d0       	rcall	.+30     	; 0x1ef8 <__ultoa_invert+0x86>
    1eda:	c9 f7       	brne	.-14     	; 0x1ece <__ultoa_invert+0x5c>
    1edc:	f6 cf       	rjmp	.-20     	; 0x1eca <__ultoa_invert+0x58>
    1ede:	46 2f       	mov	r20, r22
    1ee0:	4f 70       	andi	r20, 0x0F	; 15
    1ee2:	40 5d       	subi	r20, 0xD0	; 208
    1ee4:	4a 33       	cpi	r20, 0x3A	; 58
    1ee6:	18 f0       	brcs	.+6      	; 0x1eee <__ultoa_invert+0x7c>
    1ee8:	49 5d       	subi	r20, 0xD9	; 217
    1eea:	31 fd       	sbrc	r19, 1
    1eec:	40 52       	subi	r20, 0x20	; 32
    1eee:	41 93       	st	Z+, r20
    1ef0:	02 d0       	rcall	.+4      	; 0x1ef6 <__ultoa_invert+0x84>
    1ef2:	a9 f7       	brne	.-22     	; 0x1ede <__ultoa_invert+0x6c>
    1ef4:	ea cf       	rjmp	.-44     	; 0x1eca <__ultoa_invert+0x58>
    1ef6:	b4 e0       	ldi	r27, 0x04	; 4
    1ef8:	a6 95       	lsr	r26
    1efa:	97 95       	ror	r25
    1efc:	87 95       	ror	r24
    1efe:	77 95       	ror	r23
    1f00:	67 95       	ror	r22
    1f02:	ba 95       	dec	r27
    1f04:	c9 f7       	brne	.-14     	; 0x1ef8 <__ultoa_invert+0x86>
    1f06:	00 97       	sbiw	r24, 0x00	; 0
    1f08:	61 05       	cpc	r22, r1
    1f0a:	71 05       	cpc	r23, r1
    1f0c:	08 95       	ret
    1f0e:	9b 01       	movw	r18, r22
    1f10:	ac 01       	movw	r20, r24
    1f12:	0a 2e       	mov	r0, r26
    1f14:	06 94       	lsr	r0
    1f16:	57 95       	ror	r21
    1f18:	47 95       	ror	r20
    1f1a:	37 95       	ror	r19
    1f1c:	27 95       	ror	r18
    1f1e:	ba 95       	dec	r27
    1f20:	c9 f7       	brne	.-14     	; 0x1f14 <__ultoa_invert+0xa2>
    1f22:	62 0f       	add	r22, r18
    1f24:	73 1f       	adc	r23, r19
    1f26:	84 1f       	adc	r24, r20
    1f28:	95 1f       	adc	r25, r21
    1f2a:	a0 1d       	adc	r26, r0
    1f2c:	08 95       	ret

00001f2e <__prologue_saves__>:
    1f2e:	2f 92       	push	r2
    1f30:	3f 92       	push	r3
    1f32:	4f 92       	push	r4
    1f34:	5f 92       	push	r5
    1f36:	6f 92       	push	r6
    1f38:	7f 92       	push	r7
    1f3a:	8f 92       	push	r8
    1f3c:	9f 92       	push	r9
    1f3e:	af 92       	push	r10
    1f40:	bf 92       	push	r11
    1f42:	cf 92       	push	r12
    1f44:	df 92       	push	r13
    1f46:	ef 92       	push	r14
    1f48:	ff 92       	push	r15
    1f4a:	0f 93       	push	r16
    1f4c:	1f 93       	push	r17
    1f4e:	cf 93       	push	r28
    1f50:	df 93       	push	r29
    1f52:	cd b7       	in	r28, 0x3d	; 61
    1f54:	de b7       	in	r29, 0x3e	; 62
    1f56:	ca 1b       	sub	r28, r26
    1f58:	db 0b       	sbc	r29, r27
    1f5a:	0f b6       	in	r0, 0x3f	; 63
    1f5c:	f8 94       	cli
    1f5e:	de bf       	out	0x3e, r29	; 62
    1f60:	0f be       	out	0x3f, r0	; 63
    1f62:	cd bf       	out	0x3d, r28	; 61
    1f64:	09 94       	ijmp

00001f66 <__epilogue_restores__>:
    1f66:	2a 88       	ldd	r2, Y+18	; 0x12
    1f68:	39 88       	ldd	r3, Y+17	; 0x11
    1f6a:	48 88       	ldd	r4, Y+16	; 0x10
    1f6c:	5f 84       	ldd	r5, Y+15	; 0x0f
    1f6e:	6e 84       	ldd	r6, Y+14	; 0x0e
    1f70:	7d 84       	ldd	r7, Y+13	; 0x0d
    1f72:	8c 84       	ldd	r8, Y+12	; 0x0c
    1f74:	9b 84       	ldd	r9, Y+11	; 0x0b
    1f76:	aa 84       	ldd	r10, Y+10	; 0x0a
    1f78:	b9 84       	ldd	r11, Y+9	; 0x09
    1f7a:	c8 84       	ldd	r12, Y+8	; 0x08
    1f7c:	df 80       	ldd	r13, Y+7	; 0x07
    1f7e:	ee 80       	ldd	r14, Y+6	; 0x06
    1f80:	fd 80       	ldd	r15, Y+5	; 0x05
    1f82:	0c 81       	ldd	r16, Y+4	; 0x04
    1f84:	1b 81       	ldd	r17, Y+3	; 0x03
    1f86:	aa 81       	ldd	r26, Y+2	; 0x02
    1f88:	b9 81       	ldd	r27, Y+1	; 0x01
    1f8a:	ce 0f       	add	r28, r30
    1f8c:	d1 1d       	adc	r29, r1
    1f8e:	0f b6       	in	r0, 0x3f	; 63
    1f90:	f8 94       	cli
    1f92:	de bf       	out	0x3e, r29	; 62
    1f94:	0f be       	out	0x3f, r0	; 63
    1f96:	cd bf       	out	0x3d, r28	; 61
    1f98:	ed 01       	movw	r28, r26
    1f9a:	08 95       	ret

00001f9c <_exit>:
    1f9c:	f8 94       	cli

00001f9e <__stop_program>:
    1f9e:	ff cf       	rjmp	.-2      	; 0x1f9e <__stop_program>
