
Line Follower.elf:     file format elf32-avr

Sections:
Idx Name          Size      VMA       LMA       File off  Algn
  0 .text         00002106  00000000  00000000  00000094  2**1
                  CONTENTS, ALLOC, LOAD, READONLY, CODE
  1 .data         000000a2  00800060  00002106  0000219a  2**0
                  CONTENTS, ALLOC, LOAD, DATA
  2 .bss          0000004e  00800102  00800102  0000223c  2**0
                  ALLOC
  3 .comment      0000005c  00000000  00000000  0000223c  2**0
                  CONTENTS, READONLY
  4 .note.gnu.avr.deviceinfo 0000003c  00000000  00000000  00002298  2**2
                  CONTENTS, READONLY
  5 .debug_aranges 000003f0  00000000  00000000  000022d4  2**0
                  CONTENTS, READONLY, DEBUGGING
  6 .debug_info   0000385a  00000000  00000000  000026c4  2**0
                  CONTENTS, READONLY, DEBUGGING
  7 .debug_abbrev 0000115f  00000000  00000000  00005f1e  2**0
                  CONTENTS, READONLY, DEBUGGING
  8 .debug_line   0000120f  00000000  00000000  0000707d  2**0
                  CONTENTS, READONLY, DEBUGGING
  9 .debug_frame  00000a2c  00000000  00000000  0000828c  2**2
                  CONTENTS, READONLY, DEBUGGING
 10 .debug_str    000009e8  00000000  00000000  00008cb8  2**0
                  CONTENTS, READONLY, DEBUGGING
 11 .debug_loc    00001b76  00000000  00000000  000096a0  2**0
                  CONTENTS, READONLY, DEBUGGING
 12 .debug_ranges 00000368  00000000  00000000  0000b216  2**0
                  CONTENTS, READONLY, DEBUGGING

Disassembly of section .text:

00000000 <__vectors>:
       0:	0c 94 31 00 	jmp	0x62	; 0x62 <__ctors_end>
       4:	0c 94 50 0a 	jmp	0x14a0	; 0x14a0 <__vector_1>
       8:	0c 94 61 0a 	jmp	0x14c2	; 0x14c2 <__vector_2>
       c:	0c 94 4e 00 	jmp	0x9c	; 0x9c <__bad_interrupt>
      10:	0c 94 72 06 	jmp	0xce4	; 0xce4 <__vector_4>
      14:	0c 94 4e 00 	jmp	0x9c	; 0x9c <__bad_interrupt>
      18:	0c 94 4e 00 	jmp	0x9c	; 0x9c <__bad_interrupt>
      1c:	0c 94 4e 00 	jmp	0x9c	; 0x9c <__bad_interrupt>
      20:	0c 94 4e 00 	jmp	0x9c	; 0x9c <__bad_interrupt>
      24:	0c 94 4e 00 	jmp	0x9c	; 0x9c <__bad_interrupt>
      28:	0c 94 72 0a 	jmp	0x14e4	; 0x14e4 <__vector_10>
      2c:	0c 94 4e 00 	jmp	0x9c	; 0x9c <__bad_interrupt>
      30:	0c 94 4e 00 	jmp	0x9c	; 0x9c <__bad_interrupt>
      34:	0c 94 66 00 	jmp	0xcc	; 0xcc <__vector_13>
      38:	0c 94 4e 00 	jmp	0x9c	; 0x9c <__bad_interrupt>
      3c:	0c 94 4e 00 	jmp	0x9c	; 0x9c <__bad_interrupt>
      40:	0c 94 4e 00 	jmp	0x9c	; 0x9c <__bad_interrupt>
      44:	0c 94 4e 00 	jmp	0x9c	; 0x9c <__bad_interrupt>
      48:	0c 94 4e 00 	jmp	0x9c	; 0x9c <__bad_interrupt>
      4c:	0c 94 4e 00 	jmp	0x9c	; 0x9c <__bad_interrupt>
      50:	0c 94 4e 00 	jmp	0x9c	; 0x9c <__bad_interrupt>
      54:	96 05       	cpc	r25, r6
      56:	a3 05       	cpc	r26, r3
      58:	b1 05       	cpc	r27, r1
      5a:	bf 05       	cpc	r27, r15
      5c:	cd 05       	cpc	r28, r13
      5e:	db 05       	cpc	r29, r11
      60:	e9 05       	cpc	r30, r9

00000062 <__ctors_end>:
      62:	11 24       	eor	r1, r1
      64:	1f be       	out	0x3f, r1	; 63
      66:	cf e5       	ldi	r28, 0x5F	; 95
      68:	d8 e0       	ldi	r29, 0x08	; 8
      6a:	de bf       	out	0x3e, r29	; 62
      6c:	cd bf       	out	0x3d, r28	; 61

0000006e <__do_copy_data>:
      6e:	11 e0       	ldi	r17, 0x01	; 1
      70:	a0 e6       	ldi	r26, 0x60	; 96
      72:	b0 e0       	ldi	r27, 0x00	; 0
      74:	e6 e0       	ldi	r30, 0x06	; 6
      76:	f1 e2       	ldi	r31, 0x21	; 33
      78:	02 c0       	rjmp	.+4      	; 0x7e <__do_copy_data+0x10>
      7a:	05 90       	lpm	r0, Z+
      7c:	0d 92       	st	X+, r0
      7e:	a2 30       	cpi	r26, 0x02	; 2
      80:	b1 07       	cpc	r27, r17
      82:	d9 f7       	brne	.-10     	; 0x7a <__do_copy_data+0xc>

00000084 <__do_clear_bss>:
      84:	21 e0       	ldi	r18, 0x01	; 1
      86:	a2 e0       	ldi	r26, 0x02	; 2
      88:	b1 e0       	ldi	r27, 0x01	; 1
      8a:	01 c0       	rjmp	.+2      	; 0x8e <.do_clear_bss_start>

0000008c <.do_clear_bss_loop>:
      8c:	1d 92       	st	X+, r1

0000008e <.do_clear_bss_start>:
      8e:	a0 35       	cpi	r26, 0x50	; 80
      90:	b2 07       	cpc	r27, r18
      92:	e1 f7       	brne	.-8      	; 0x8c <.do_clear_bss_loop>
      94:	0e 94 f4 07 	call	0xfe8	; 0xfe8 <main>
      98:	0c 94 81 10 	jmp	0x2102	; 0x2102 <_exit>

0000009c <__bad_interrupt>:
      9c:	0c 94 00 00 	jmp	0	; 0x0 <__vectors>

000000a0 <AdcConvert>:
// Input: channel number, 0..7
// Return: 10 bit result, 0..1023 
/******************************************************************************/
uint16_t AdcConvert (uint8_t channel)
{
   ADMUX = 0x40+channel;            // use Avcc+ ref with capacitor, select channel
      a0:	80 5c       	subi	r24, 0xC0	; 192
      a2:	87 b9       	out	0x07, r24	; 7
   ADCSRA |= 0x50;                  // clear EOC-flag, new start conversion
      a4:	86 b1       	in	r24, 0x06	; 6
      a6:	80 65       	ori	r24, 0x50	; 80
      a8:	86 b9       	out	0x06, r24	; 6
   while ((ADCSRA & 0x10) == 0);    // Waiting for conversion complete
      aa:	34 9b       	sbis	0x06, 4	; 6
      ac:	fe cf       	rjmp	.-4      	; 0xaa <AdcConvert+0xa>
   return ADC;                      // Return 16 bit ADC value
      ae:	84 b1       	in	r24, 0x04	; 4
      b0:	95 b1       	in	r25, 0x05	; 5
}
      b2:	08 95       	ret

000000b4 <AdcInit>:
// Input: 
// Return: 
/******************************************************************************/
void AdcInit (void)
{
   ADCSRA = 0x87;                   // enable ADC, clear EOC-flag, set clock div.
      b4:	87 e8       	ldi	r24, 0x87	; 135
      b6:	86 b9       	out	0x06, r24	; 6
      b8:	08 95       	ret

000000ba <USARTInit>:
				setDutyCycleMotorR(0);
				bluetoothFlag=0;
			}	
	}

	LCDGotoXY(0,0);
      ba:	89 b9       	out	0x09, r24	; 9
      bc:	90 bd       	out	0x20, r25	; 32
      be:	86 e8       	ldi	r24, 0x86	; 134
      c0:	80 bd       	out	0x20, r24	; 32
	LCDPutString("Bluetooth test");
      c2:	88 e1       	ldi	r24, 0x18	; 24
      c4:	8a b9       	out	0x0a, r24	; 10
      c6:	57 9a       	sbi	0x0a, 7	; 10
      c8:	78 94       	sei
      ca:	08 95       	ret

000000cc <__vector_13>:
			if(ReceivedByte=='s'){
				setDutyCycleMotorL(0);
				setDutyCycleMotorR(0);
			}	
		
			if(ReceivedByte=='q'){
      cc:	1f 92       	push	r1
      ce:	0f 92       	push	r0
      d0:	0f b6       	in	r0, 0x3f	; 63
      d2:	0f 92       	push	r0
      d4:	11 24       	eor	r1, r1
      d6:	8f 93       	push	r24
/////////////////////////////////////////////////////////////

ISR(USART_RXC_vect)
	{
	// Fetch the received byte value into the variable " ByteReceived "
	ReceivedByte = UDR;
      d8:	8c b1       	in	r24, 0x0c	; 12
      da:	80 93 33 01 	sts	0x0133, r24
	//UDR = ReceivedByte;
	//UDR = 13;
	}
      de:	8f 91       	pop	r24
      e0:	0f 90       	pop	r0
      e2:	0f be       	out	0x3f, r0	; 63
      e4:	0f 90       	pop	r0
      e6:	1f 90       	pop	r1
      e8:	18 95       	reti

000000ea <getRunLineFlag>:
#define centralButton '4'
#define noButton '5'

bool getRunLineFlag(){
	return runLineFlag;
}
      ea:	80 91 03 01 	lds	r24, 0x0103
      ee:	08 95       	ret

000000f0 <getRunWallFlag>:

bool getRunWallFlag(){
	return runWallFlag;
}
      f0:	80 91 02 01 	lds	r24, 0x0102
      f4:	08 95       	ret

000000f6 <setRunLineFlag>:

void setRunLineFlag(bool value){
	runLineFlag = value;
      f6:	80 93 03 01 	sts	0x0103, r24
      fa:	08 95       	ret

000000fc <setRunWallFlag>:
}

void setRunWallFlag(bool value){
	runWallFlag = value;
      fc:	80 93 02 01 	sts	0x0102, r24
     100:	08 95       	ret

00000102 <ADCReadButton>:
// Input:
// Return: char
/******************************************************************************/
char ADCReadButton(void)
{
	uint16_t keyboardVoltage = (int16_t)AdcConvert(0);	// get ADC value from channel ADC0
     102:	80 e0       	ldi	r24, 0x00	; 0
     104:	0e 94 50 00 	call	0xa0	; 0xa0 <AdcConvert>
	const int maxUpButtonVoltage = 300;
	const int maxDownButtonVoltage = 500;
	const int maxLeftButtonVoltage = 700;
	const int maxCentralButtonVoltage = 900;
	
	if (keyboardVoltage < maxRightButtonVoltage)
     108:	84 36       	cpi	r24, 0x64	; 100
     10a:	91 05       	cpc	r25, r1
     10c:	88 f0       	brcs	.+34     	; 0x130 <ADCReadButton+0x2e>
	{
		return rightButton;
	}
	else if (keyboardVoltage < maxUpButtonVoltage)
     10e:	8c 32       	cpi	r24, 0x2C	; 44
     110:	21 e0       	ldi	r18, 0x01	; 1
     112:	92 07       	cpc	r25, r18
     114:	78 f0       	brcs	.+30     	; 0x134 <ADCReadButton+0x32>
	{
		return upButton;
	}
	else if (keyboardVoltage < maxDownButtonVoltage)
     116:	84 3f       	cpi	r24, 0xF4	; 244
     118:	21 e0       	ldi	r18, 0x01	; 1
     11a:	92 07       	cpc	r25, r18
     11c:	68 f0       	brcs	.+26     	; 0x138 <ADCReadButton+0x36>
	{
		return downButton;
	}
	else if (keyboardVoltage < maxLeftButtonVoltage)
     11e:	8c 3b       	cpi	r24, 0xBC	; 188
     120:	22 e0       	ldi	r18, 0x02	; 2
     122:	92 07       	cpc	r25, r18
     124:	58 f0       	brcs	.+22     	; 0x13c <ADCReadButton+0x3a>
	{
		return leftButton;
	}
	else if (keyboardVoltage < maxCentralButtonVoltage)
     126:	84 38       	cpi	r24, 0x84	; 132
     128:	93 40       	sbci	r25, 0x03	; 3
     12a:	50 f0       	brcs	.+20     	; 0x140 <ADCReadButton+0x3e>
	{
		return centralButton;
	}
	else
	{
		return noButton;
     12c:	85 e3       	ldi	r24, 0x35	; 53
     12e:	08 95       	ret
	const int maxLeftButtonVoltage = 700;
	const int maxCentralButtonVoltage = 900;
	
	if (keyboardVoltage < maxRightButtonVoltage)
	{
		return rightButton;
     130:	80 e3       	ldi	r24, 0x30	; 48
     132:	08 95       	ret
	}
	else if (keyboardVoltage < maxUpButtonVoltage)
	{
		return upButton;
     134:	81 e3       	ldi	r24, 0x31	; 49
     136:	08 95       	ret
	}
	else if (keyboardVoltage < maxDownButtonVoltage)
	{
		return downButton;
     138:	82 e3       	ldi	r24, 0x32	; 50
     13a:	08 95       	ret
	}
	else if (keyboardVoltage < maxLeftButtonVoltage)
	{
		return leftButton;
     13c:	83 e3       	ldi	r24, 0x33	; 51
     13e:	08 95       	ret
	}
	else if (keyboardVoltage < maxCentralButtonVoltage)
	{
		return centralButton;
     140:	84 e3       	ldi	r24, 0x34	; 52
	}
	else
	{
		return noButton;
	}
}
     142:	08 95       	ret

00000144 <getButton>:
char getButton(void)
{
	static char last = noButton;
	char temp, now;

	now = ADCReadButton();          // read the present input
     144:	0e 94 81 00 	call	0x102	; 0x102 <ADCReadButton>
     148:	98 2f       	mov	r25, r24
	if (now == last)                // test for two subsequent equal inputs
     14a:	80 91 60 00 	lds	r24, 0x0060
     14e:	98 13       	cpse	r25, r24
		return now;
	}
	else
	{
		temp = last;                 // if new: store new and return the last stable
		last = now;
     150:	90 93 60 00 	sts	0x0060, r25
		return temp;
	}
}
     154:	08 95       	ret

00000156 <buttonReleased>:
		return false;
	}
}
bool buttonReleased(void)
{
	char button = getButton();
     156:	0e 94 a2 00 	call	0x144	; 0x144 <getButton>
	if(button==noButton)
     15a:	91 e0       	ldi	r25, 0x01	; 1
     15c:	85 33       	cpi	r24, 0x35	; 53
     15e:	09 f0       	breq	.+2      	; 0x162 <buttonReleased+0xc>
     160:	90 e0       	ldi	r25, 0x00	; 0
	}
	else
	{
		return false;
	}
}
     162:	89 2f       	mov	r24, r25
     164:	08 95       	ret

00000166 <LcdTask>:
	}
}

void LcdTask (void)
{
	LCDClear();
     166:	0e 94 eb 03 	call	0x7d6	; 0x7d6 <LCDClear>
	LCDGotoXY(0,0);
     16a:	60 e0       	ldi	r22, 0x00	; 0
     16c:	80 e0       	ldi	r24, 0x00	; 0
     16e:	0e 94 02 04 	call	0x804	; 0x804 <LCDGotoXY>
	LCDPutString(menuStr1);
     172:	82 e4       	ldi	r24, 0x42	; 66
     174:	91 e0       	ldi	r25, 0x01	; 1
     176:	0e 94 42 04 	call	0x884	; 0x884 <LCDPutString>
	LCDGotoXY(0,1);
     17a:	61 e0       	ldi	r22, 0x01	; 1
     17c:	80 e0       	ldi	r24, 0x00	; 0
     17e:	0e 94 02 04 	call	0x804	; 0x804 <LCDGotoXY>
	LCDPutString(menuStr2);
     182:	84 e3       	ldi	r24, 0x34	; 52
     184:	91 e0       	ldi	r25, 0x01	; 1
     186:	0e 94 42 04 	call	0x884	; 0x884 <LCDPutString>
	LCDGotoXY(15,0);
     18a:	60 e0       	ldi	r22, 0x00	; 0
     18c:	8f e0       	ldi	r24, 0x0F	; 15
     18e:	0e 94 02 04 	call	0x804	; 0x804 <LCDGotoXY>
	LCDPutChar(1);	// display the up arrow
     192:	81 e0       	ldi	r24, 0x01	; 1
     194:	0e 94 1a 04 	call	0x834	; 0x834 <LCDPutChar>
	LCDGotoXY(15,1);
     198:	61 e0       	ldi	r22, 0x01	; 1
     19a:	8f e0       	ldi	r24, 0x0F	; 15
     19c:	0e 94 02 04 	call	0x804	; 0x804 <LCDGotoXY>
	LCDPutChar(0);	// display the down arrow
     1a0:	80 e0       	ldi	r24, 0x00	; 0
     1a2:	0e 94 1a 04 	call	0x834	; 0x834 <LCDPutChar>
     1a6:	08 95       	ret

000001a8 <subMenuRight>:
		return false;
	}
}

void subMenuRight(void)
{
     1a8:	0f 93       	push	r16
     1aa:	1f 93       	push	r17
     1ac:	cf 93       	push	r28
     1ae:	df 93       	push	r29
	char subButton = getButton();
     1b0:	0e 94 a2 00 	call	0x144	; 0x144 <getButton>
     1b4:	c8 2f       	mov	r28, r24
	
	sprintf(menuStr1, "Adjust kp");
     1b6:	9a e0       	ldi	r25, 0x0A	; 10
     1b8:	e7 e8       	ldi	r30, 0x87	; 135
     1ba:	f0 e0       	ldi	r31, 0x00	; 0
     1bc:	a2 e4       	ldi	r26, 0x42	; 66
     1be:	b1 e0       	ldi	r27, 0x01	; 1
     1c0:	01 90       	ld	r0, Z+
     1c2:	0d 92       	st	X+, r0
     1c4:	9a 95       	dec	r25
     1c6:	e1 f7       	brne	.-8      	; 0x1c0 <subMenuRight+0x18>
	sprintf(menuStr2,"kp = %03d", kp);
     1c8:	80 91 63 00 	lds	r24, 0x0063
     1cc:	1f 92       	push	r1
     1ce:	8f 93       	push	r24
     1d0:	21 e9       	ldi	r18, 0x91	; 145
     1d2:	30 e0       	ldi	r19, 0x00	; 0
     1d4:	3f 93       	push	r19
     1d6:	2f 93       	push	r18
     1d8:	24 e3       	ldi	r18, 0x34	; 52
     1da:	31 e0       	ldi	r19, 0x01	; 1
     1dc:	3f 93       	push	r19
     1de:	2f 93       	push	r18
     1e0:	0e 94 a9 0d 	call	0x1b52	; 0x1b52 <sprintf>
	
	LcdTask();
     1e4:	0e 94 b3 00 	call	0x166	; 0x166 <LcdTask>
	while(subButton!= centralButton)
     1e8:	0f 90       	pop	r0
     1ea:	0f 90       	pop	r0
     1ec:	0f 90       	pop	r0
     1ee:	0f 90       	pop	r0
     1f0:	0f 90       	pop	r0
     1f2:	0f 90       	pop	r0
     1f4:	c4 33       	cpi	r28, 0x34	; 52
     1f6:	09 f4       	brne	.+2      	; 0x1fa <subMenuRight+0x52>
     1f8:	40 c0       	rjmp	.+128    	; 0x27a <subMenuRight+0xd2>
		subButton = getButton();
		if(subButton == upButton)
		{
			while(!buttonReleased());
			kp+=1;
			sprintf(menuStr2,"kp = %03d", kp);
     1fa:	01 e9       	ldi	r16, 0x91	; 145
     1fc:	10 e0       	ldi	r17, 0x00	; 0
     1fe:	c4 e3       	ldi	r28, 0x34	; 52
     200:	d1 e0       	ldi	r29, 0x01	; 1
	sprintf(menuStr2,"kp = %03d", kp);
	
	LcdTask();
	while(subButton!= centralButton)
	{
		subButton = getButton();
     202:	0e 94 a2 00 	call	0x144	; 0x144 <getButton>
		if(subButton == upButton)
     206:	81 33       	cpi	r24, 0x31	; 49
     208:	d1 f4       	brne	.+52     	; 0x23e <subMenuRight+0x96>
		{
			while(!buttonReleased());
     20a:	0e 94 ab 00 	call	0x156	; 0x156 <buttonReleased>
     20e:	88 23       	and	r24, r24
     210:	e1 f3       	breq	.-8      	; 0x20a <subMenuRight+0x62>
			kp+=1;
     212:	80 91 63 00 	lds	r24, 0x0063
     216:	8f 5f       	subi	r24, 0xFF	; 255
     218:	80 93 63 00 	sts	0x0063, r24
			sprintf(menuStr2,"kp = %03d", kp);
     21c:	1f 92       	push	r1
     21e:	8f 93       	push	r24
     220:	1f 93       	push	r17
     222:	0f 93       	push	r16
     224:	df 93       	push	r29
     226:	cf 93       	push	r28
     228:	0e 94 a9 0d 	call	0x1b52	; 0x1b52 <sprintf>
			LcdTask();
     22c:	0e 94 b3 00 	call	0x166	; 0x166 <LcdTask>
     230:	0f 90       	pop	r0
     232:	0f 90       	pop	r0
     234:	0f 90       	pop	r0
     236:	0f 90       	pop	r0
     238:	0f 90       	pop	r0
     23a:	0f 90       	pop	r0
     23c:	e2 cf       	rjmp	.-60     	; 0x202 <subMenuRight+0x5a>
		}
		else if(subButton == downButton)
     23e:	82 33       	cpi	r24, 0x32	; 50
     240:	d1 f4       	brne	.+52     	; 0x276 <subMenuRight+0xce>
		{
			while(!buttonReleased());
     242:	0e 94 ab 00 	call	0x156	; 0x156 <buttonReleased>
     246:	88 23       	and	r24, r24
     248:	e1 f3       	breq	.-8      	; 0x242 <subMenuRight+0x9a>
			kp-=1;
     24a:	80 91 63 00 	lds	r24, 0x0063
     24e:	81 50       	subi	r24, 0x01	; 1
     250:	80 93 63 00 	sts	0x0063, r24
			sprintf(menuStr2,"kp = %03d", kp);
     254:	1f 92       	push	r1
     256:	8f 93       	push	r24
     258:	1f 93       	push	r17
     25a:	0f 93       	push	r16
     25c:	df 93       	push	r29
     25e:	cf 93       	push	r28
     260:	0e 94 a9 0d 	call	0x1b52	; 0x1b52 <sprintf>
			LcdTask();
     264:	0e 94 b3 00 	call	0x166	; 0x166 <LcdTask>
     268:	0f 90       	pop	r0
     26a:	0f 90       	pop	r0
     26c:	0f 90       	pop	r0
     26e:	0f 90       	pop	r0
     270:	0f 90       	pop	r0
     272:	0f 90       	pop	r0
     274:	c6 cf       	rjmp	.-116    	; 0x202 <subMenuRight+0x5a>
	
	sprintf(menuStr1, "Adjust kp");
	sprintf(menuStr2,"kp = %03d", kp);
	
	LcdTask();
	while(subButton!= centralButton)
     276:	84 33       	cpi	r24, 0x34	; 52
     278:	21 f6       	brne	.-120    	; 0x202 <subMenuRight+0x5a>
			kp-=1;
			sprintf(menuStr2,"kp = %03d", kp);
			LcdTask();
		}
	}
}
     27a:	df 91       	pop	r29
     27c:	cf 91       	pop	r28
     27e:	1f 91       	pop	r17
     280:	0f 91       	pop	r16
     282:	08 95       	ret

00000284 <subMenuLeft>:
void subMenuLeft(void)
{
     284:	0f 93       	push	r16
     286:	1f 93       	push	r17
     288:	cf 93       	push	r28
     28a:	df 93       	push	r29
	char subButton = getButton();
     28c:	0e 94 a2 00 	call	0x144	; 0x144 <getButton>
     290:	c8 2f       	mov	r28, r24
	sprintf(menuStr1, "Adjust ki");
     292:	9a e0       	ldi	r25, 0x0A	; 10
     294:	eb e9       	ldi	r30, 0x9B	; 155
     296:	f0 e0       	ldi	r31, 0x00	; 0
     298:	a2 e4       	ldi	r26, 0x42	; 66
     29a:	b1 e0       	ldi	r27, 0x01	; 1
     29c:	01 90       	ld	r0, Z+
     29e:	0d 92       	st	X+, r0
     2a0:	9a 95       	dec	r25
     2a2:	e1 f7       	brne	.-8      	; 0x29c <subMenuLeft+0x18>
	sprintf(menuStr2,"ki = %03d", ki);
     2a4:	80 91 62 00 	lds	r24, 0x0062
     2a8:	1f 92       	push	r1
     2aa:	8f 93       	push	r24
     2ac:	25 ea       	ldi	r18, 0xA5	; 165
     2ae:	30 e0       	ldi	r19, 0x00	; 0
     2b0:	3f 93       	push	r19
     2b2:	2f 93       	push	r18
     2b4:	24 e3       	ldi	r18, 0x34	; 52
     2b6:	31 e0       	ldi	r19, 0x01	; 1
     2b8:	3f 93       	push	r19
     2ba:	2f 93       	push	r18
     2bc:	0e 94 a9 0d 	call	0x1b52	; 0x1b52 <sprintf>
	LcdTask();
     2c0:	0e 94 b3 00 	call	0x166	; 0x166 <LcdTask>
	while(subButton!=centralButton)
     2c4:	0f 90       	pop	r0
     2c6:	0f 90       	pop	r0
     2c8:	0f 90       	pop	r0
     2ca:	0f 90       	pop	r0
     2cc:	0f 90       	pop	r0
     2ce:	0f 90       	pop	r0
     2d0:	c4 33       	cpi	r28, 0x34	; 52
     2d2:	09 f4       	brne	.+2      	; 0x2d6 <subMenuLeft+0x52>
     2d4:	40 c0       	rjmp	.+128    	; 0x356 <subMenuLeft+0xd2>
		subButton=getButton();
		if(subButton == upButton)
		{
			while(!buttonReleased());
			ki+=1;
			sprintf(menuStr2,"ki = %03d", ki);
     2d6:	05 ea       	ldi	r16, 0xA5	; 165
     2d8:	10 e0       	ldi	r17, 0x00	; 0
     2da:	c4 e3       	ldi	r28, 0x34	; 52
     2dc:	d1 e0       	ldi	r29, 0x01	; 1
	sprintf(menuStr1, "Adjust ki");
	sprintf(menuStr2,"ki = %03d", ki);
	LcdTask();
	while(subButton!=centralButton)
	{
		subButton=getButton();
     2de:	0e 94 a2 00 	call	0x144	; 0x144 <getButton>
		if(subButton == upButton)
     2e2:	81 33       	cpi	r24, 0x31	; 49
     2e4:	d1 f4       	brne	.+52     	; 0x31a <subMenuLeft+0x96>
		{
			while(!buttonReleased());
     2e6:	0e 94 ab 00 	call	0x156	; 0x156 <buttonReleased>
     2ea:	88 23       	and	r24, r24
     2ec:	e1 f3       	breq	.-8      	; 0x2e6 <subMenuLeft+0x62>
			ki+=1;
     2ee:	80 91 62 00 	lds	r24, 0x0062
     2f2:	8f 5f       	subi	r24, 0xFF	; 255
     2f4:	80 93 62 00 	sts	0x0062, r24
			sprintf(menuStr2,"ki = %03d", ki);
     2f8:	1f 92       	push	r1
     2fa:	8f 93       	push	r24
     2fc:	1f 93       	push	r17
     2fe:	0f 93       	push	r16
     300:	df 93       	push	r29
     302:	cf 93       	push	r28
     304:	0e 94 a9 0d 	call	0x1b52	; 0x1b52 <sprintf>
			LcdTask();
     308:	0e 94 b3 00 	call	0x166	; 0x166 <LcdTask>
     30c:	0f 90       	pop	r0
     30e:	0f 90       	pop	r0
     310:	0f 90       	pop	r0
     312:	0f 90       	pop	r0
     314:	0f 90       	pop	r0
     316:	0f 90       	pop	r0
     318:	e2 cf       	rjmp	.-60     	; 0x2de <subMenuLeft+0x5a>
		}
		else if(subButton == downButton)
     31a:	82 33       	cpi	r24, 0x32	; 50
     31c:	d1 f4       	brne	.+52     	; 0x352 <subMenuLeft+0xce>
		{
			while(!buttonReleased());
     31e:	0e 94 ab 00 	call	0x156	; 0x156 <buttonReleased>
     322:	88 23       	and	r24, r24
     324:	e1 f3       	breq	.-8      	; 0x31e <subMenuLeft+0x9a>
			ki-=1;
     326:	80 91 62 00 	lds	r24, 0x0062
     32a:	81 50       	subi	r24, 0x01	; 1
     32c:	80 93 62 00 	sts	0x0062, r24
			sprintf(menuStr2,"ki = %03d", ki);
     330:	1f 92       	push	r1
     332:	8f 93       	push	r24
     334:	1f 93       	push	r17
     336:	0f 93       	push	r16
     338:	df 93       	push	r29
     33a:	cf 93       	push	r28
     33c:	0e 94 a9 0d 	call	0x1b52	; 0x1b52 <sprintf>
			LcdTask();
     340:	0e 94 b3 00 	call	0x166	; 0x166 <LcdTask>
     344:	0f 90       	pop	r0
     346:	0f 90       	pop	r0
     348:	0f 90       	pop	r0
     34a:	0f 90       	pop	r0
     34c:	0f 90       	pop	r0
     34e:	0f 90       	pop	r0
     350:	c6 cf       	rjmp	.-116    	; 0x2de <subMenuLeft+0x5a>
{
	char subButton = getButton();
	sprintf(menuStr1, "Adjust ki");
	sprintf(menuStr2,"ki = %03d", ki);
	LcdTask();
	while(subButton!=centralButton)
     352:	84 33       	cpi	r24, 0x34	; 52
     354:	21 f6       	brne	.-120    	; 0x2de <subMenuLeft+0x5a>
			ki-=1;
			sprintf(menuStr2,"ki = %03d", ki);
			LcdTask();
		}
	}
}
     356:	df 91       	pop	r29
     358:	cf 91       	pop	r28
     35a:	1f 91       	pop	r17
     35c:	0f 91       	pop	r16
     35e:	08 95       	ret

00000360 <subMenuUp>:
void subMenuUp(void)
{
     360:	cf 93       	push	r28
     362:	df 93       	push	r29
	char subButton = getButton();
     364:	0e 94 a2 00 	call	0x144	; 0x144 <getButton>
     368:	c8 2f       	mov	r28, r24
	sprintf(menuStr1, "Run selection");
     36a:	9e e0       	ldi	r25, 0x0E	; 14
     36c:	e3 ec       	ldi	r30, 0xC3	; 195
     36e:	f0 e0       	ldi	r31, 0x00	; 0
     370:	a2 e4       	ldi	r26, 0x42	; 66
     372:	b1 e0       	ldi	r27, 0x01	; 1
     374:	01 90       	ld	r0, Z+
     376:	0d 92       	st	X+, r0
     378:	9a 95       	dec	r25
     37a:	e1 f7       	brne	.-8      	; 0x374 <subMenuUp+0x14>
	LcdTask();
     37c:	0e 94 b3 00 	call	0x166	; 0x166 <LcdTask>
	while(subButton != centralButton)
     380:	c4 33       	cpi	r28, 0x34	; 52
     382:	09 f4       	brne	.+2      	; 0x386 <subMenuUp+0x26>
     384:	40 c0       	rjmp	.+128    	; 0x406 <subMenuUp+0xa6>
bool getRunWallFlag(){
	return runWallFlag;
}

void setRunLineFlag(bool value){
	runLineFlag = value;
     386:	c1 e0       	ldi	r28, 0x01	; 1
			{
				// do nothing
			};
			setRunLineFlag(true);
			setRunWallFlag(false);
			sprintf(menuStr2,"RunLine()");
     388:	da e0       	ldi	r29, 0x0A	; 10
	char subButton = getButton();
	sprintf(menuStr1, "Run selection");
	LcdTask();
	while(subButton != centralButton)
	{
		subButton = getButton();
     38a:	0e 94 a2 00 	call	0x144	; 0x144 <getButton>
		if(subButton == upButton)
     38e:	81 33       	cpi	r24, 0x31	; 49
     390:	d9 f4       	brne	.+54     	; 0x3c8 <subMenuUp+0x68>
		{
			while(!buttonReleased())
     392:	0e 94 ab 00 	call	0x156	; 0x156 <buttonReleased>
     396:	88 23       	and	r24, r24
     398:	e1 f3       	breq	.-8      	; 0x392 <subMenuUp+0x32>
bool getRunWallFlag(){
	return runWallFlag;
}

void setRunLineFlag(bool value){
	runLineFlag = value;
     39a:	c0 93 03 01 	sts	0x0103, r28
}

void setRunWallFlag(bool value){
	runWallFlag = value;
     39e:	10 92 02 01 	sts	0x0102, r1
			{
				// do nothing
			};
			setRunLineFlag(true);
			setRunWallFlag(false);
			sprintf(menuStr2,"RunLine()");
     3a2:	ef ea       	ldi	r30, 0xAF	; 175
     3a4:	f0 e0       	ldi	r31, 0x00	; 0
     3a6:	a4 e3       	ldi	r26, 0x34	; 52
     3a8:	b1 e0       	ldi	r27, 0x01	; 1
     3aa:	8d 2f       	mov	r24, r29
     3ac:	01 90       	ld	r0, Z+
     3ae:	0d 92       	st	X+, r0
     3b0:	8a 95       	dec	r24
     3b2:	e1 f7       	brne	.-8      	; 0x3ac <subMenuUp+0x4c>
			LcdTask();
     3b4:	0e 94 b3 00 	call	0x166	; 0x166 <LcdTask>
			LCDGotoXY(15,0);
     3b8:	60 e0       	ldi	r22, 0x00	; 0
     3ba:	8f e0       	ldi	r24, 0x0F	; 15
     3bc:	0e 94 02 04 	call	0x804	; 0x804 <LCDGotoXY>
			LCDPutChar(' ');	// 0x20 using empty char blanks the up arrow
     3c0:	80 e2       	ldi	r24, 0x20	; 32
     3c2:	0e 94 1a 04 	call	0x834	; 0x834 <LCDPutChar>
     3c6:	e1 cf       	rjmp	.-62     	; 0x38a <subMenuUp+0x2a>
		}
		else if(subButton == downButton)
     3c8:	82 33       	cpi	r24, 0x32	; 50
     3ca:	d9 f4       	brne	.+54     	; 0x402 <subMenuUp+0xa2>
		{
			while(!buttonReleased())
     3cc:	0e 94 ab 00 	call	0x156	; 0x156 <buttonReleased>
     3d0:	88 23       	and	r24, r24
     3d2:	e1 f3       	breq	.-8      	; 0x3cc <subMenuUp+0x6c>
void setRunLineFlag(bool value){
	runLineFlag = value;
}

void setRunWallFlag(bool value){
	runWallFlag = value;
     3d4:	c0 93 02 01 	sts	0x0102, r28
bool getRunWallFlag(){
	return runWallFlag;
}

void setRunLineFlag(bool value){
	runLineFlag = value;
     3d8:	10 92 03 01 	sts	0x0103, r1
			{
				// do nothing
			};
			setRunWallFlag(true);
			setRunLineFlag(false);
			sprintf(menuStr2,"RunWall()");
     3dc:	e9 eb       	ldi	r30, 0xB9	; 185
     3de:	f0 e0       	ldi	r31, 0x00	; 0
     3e0:	a4 e3       	ldi	r26, 0x34	; 52
     3e2:	b1 e0       	ldi	r27, 0x01	; 1
     3e4:	8d 2f       	mov	r24, r29
     3e6:	01 90       	ld	r0, Z+
     3e8:	0d 92       	st	X+, r0
     3ea:	8a 95       	dec	r24
     3ec:	e1 f7       	brne	.-8      	; 0x3e6 <subMenuUp+0x86>
			LcdTask();
     3ee:	0e 94 b3 00 	call	0x166	; 0x166 <LcdTask>
			LCDGotoXY(15,1);
     3f2:	6c 2f       	mov	r22, r28
     3f4:	8f e0       	ldi	r24, 0x0F	; 15
     3f6:	0e 94 02 04 	call	0x804	; 0x804 <LCDGotoXY>
			LCDPutChar(' ');	// 0x20 using empty char blanks the down arrow
     3fa:	80 e2       	ldi	r24, 0x20	; 32
     3fc:	0e 94 1a 04 	call	0x834	; 0x834 <LCDPutChar>
     400:	c4 cf       	rjmp	.-120    	; 0x38a <subMenuUp+0x2a>
void subMenuUp(void)
{
	char subButton = getButton();
	sprintf(menuStr1, "Run selection");
	LcdTask();
	while(subButton != centralButton)
     402:	84 33       	cpi	r24, 0x34	; 52
     404:	11 f6       	brne	.-124    	; 0x38a <subMenuUp+0x2a>
			LcdTask();
			LCDGotoXY(15,1);
			LCDPutChar(' ');	// 0x20 using empty char blanks the down arrow
		}
	}
}
     406:	df 91       	pop	r29
     408:	cf 91       	pop	r28
     40a:	08 95       	ret

0000040c <subMenuDown>:
void subMenuDown(void)
{
     40c:	0f 93       	push	r16
     40e:	1f 93       	push	r17
     410:	cf 93       	push	r28
     412:	df 93       	push	r29
	char subButton = getButton();
     414:	0e 94 a2 00 	call	0x144	; 0x144 <getButton>
     418:	c8 2f       	mov	r28, r24
	sprintf(menuStr1, "En_Bluetooth");
     41a:	9d e0       	ldi	r25, 0x0D	; 13
     41c:	e1 ed       	ldi	r30, 0xD1	; 209
     41e:	f0 e0       	ldi	r31, 0x00	; 0
     420:	a2 e4       	ldi	r26, 0x42	; 66
     422:	b1 e0       	ldi	r27, 0x01	; 1
     424:	01 90       	ld	r0, Z+
     426:	0d 92       	st	X+, r0
     428:	9a 95       	dec	r25
     42a:	e1 f7       	brne	.-8      	; 0x424 <subMenuDown+0x18>
	LcdTask();
     42c:	0e 94 b3 00 	call	0x166	; 0x166 <LcdTask>
	while(subButton != centralButton)
     430:	c4 33       	cpi	r28, 0x34	; 52
     432:	09 f4       	brne	.+2      	; 0x436 <subMenuDown+0x2a>
     434:	40 c0       	rjmp	.+128    	; 0x4b6 <subMenuDown+0xaa>
		subButton=getButton();
		if(subButton == upButton)
		{
			while(!buttonReleased());
			k+=5;
			sprintf(menuStr2,"kp = %03d", k);
     436:	01 e9       	ldi	r16, 0x91	; 145
     438:	10 e0       	ldi	r17, 0x00	; 0
     43a:	c4 e3       	ldi	r28, 0x34	; 52
     43c:	d1 e0       	ldi	r29, 0x01	; 1
	char subButton = getButton();
	sprintf(menuStr1, "En_Bluetooth");
	LcdTask();
	while(subButton != centralButton)
	{
		subButton=getButton();
     43e:	0e 94 a2 00 	call	0x144	; 0x144 <getButton>
		if(subButton == upButton)
     442:	81 33       	cpi	r24, 0x31	; 49
     444:	d1 f4       	brne	.+52     	; 0x47a <subMenuDown+0x6e>
		{
			while(!buttonReleased());
     446:	0e 94 ab 00 	call	0x156	; 0x156 <buttonReleased>
     44a:	88 23       	and	r24, r24
     44c:	e1 f3       	breq	.-8      	; 0x446 <subMenuDown+0x3a>
			k+=5;
     44e:	80 91 61 00 	lds	r24, 0x0061
     452:	8b 5f       	subi	r24, 0xFB	; 251
     454:	80 93 61 00 	sts	0x0061, r24
			sprintf(menuStr2,"kp = %03d", k);
     458:	1f 92       	push	r1
     45a:	8f 93       	push	r24
     45c:	1f 93       	push	r17
     45e:	0f 93       	push	r16
     460:	df 93       	push	r29
     462:	cf 93       	push	r28
     464:	0e 94 a9 0d 	call	0x1b52	; 0x1b52 <sprintf>
			LcdTask();
     468:	0e 94 b3 00 	call	0x166	; 0x166 <LcdTask>
     46c:	0f 90       	pop	r0
     46e:	0f 90       	pop	r0
     470:	0f 90       	pop	r0
     472:	0f 90       	pop	r0
     474:	0f 90       	pop	r0
     476:	0f 90       	pop	r0
     478:	e2 cf       	rjmp	.-60     	; 0x43e <subMenuDown+0x32>
		}
		else if(subButton == downButton)
     47a:	82 33       	cpi	r24, 0x32	; 50
     47c:	d1 f4       	brne	.+52     	; 0x4b2 <subMenuDown+0xa6>
		{
			while(!buttonReleased());
     47e:	0e 94 ab 00 	call	0x156	; 0x156 <buttonReleased>
     482:	88 23       	and	r24, r24
     484:	e1 f3       	breq	.-8      	; 0x47e <subMenuDown+0x72>
			k-=5;
     486:	80 91 61 00 	lds	r24, 0x0061
     48a:	85 50       	subi	r24, 0x05	; 5
     48c:	80 93 61 00 	sts	0x0061, r24
			sprintf(menuStr2,"kp = %03d", k);
     490:	1f 92       	push	r1
     492:	8f 93       	push	r24
     494:	1f 93       	push	r17
     496:	0f 93       	push	r16
     498:	df 93       	push	r29
     49a:	cf 93       	push	r28
     49c:	0e 94 a9 0d 	call	0x1b52	; 0x1b52 <sprintf>
			LcdTask();
     4a0:	0e 94 b3 00 	call	0x166	; 0x166 <LcdTask>
     4a4:	0f 90       	pop	r0
     4a6:	0f 90       	pop	r0
     4a8:	0f 90       	pop	r0
     4aa:	0f 90       	pop	r0
     4ac:	0f 90       	pop	r0
     4ae:	0f 90       	pop	r0
     4b0:	c6 cf       	rjmp	.-116    	; 0x43e <subMenuDown+0x32>
void subMenuDown(void)
{
	char subButton = getButton();
	sprintf(menuStr1, "En_Bluetooth");
	LcdTask();
	while(subButton != centralButton)
     4b2:	84 33       	cpi	r24, 0x34	; 52
     4b4:	21 f6       	brne	.-120    	; 0x43e <subMenuDown+0x32>
			k-=5;
			sprintf(menuStr2,"kp = %03d", k);
			LcdTask();
		}
	}
}
     4b6:	df 91       	pop	r29
     4b8:	cf 91       	pop	r28
     4ba:	1f 91       	pop	r17
     4bc:	0f 91       	pop	r16
     4be:	08 95       	ret

000004c0 <buttonMenu>:
//		'2':
//		'3':
//		'4':
/******************************************************************************/
void buttonMenu(void)
{
     4c0:	cf 93       	push	r28
	char lastButton = noButton;
	char button = getButton();
     4c2:	0e 94 a2 00 	call	0x144	; 0x144 <getButton>
     4c6:	c8 2f       	mov	r28, r24
	sprintf(menuStr1, "Run");
     4c8:	82 e5       	ldi	r24, 0x52	; 82
     4ca:	95 e7       	ldi	r25, 0x75	; 117
     4cc:	ae e6       	ldi	r26, 0x6E	; 110
     4ce:	b0 e0       	ldi	r27, 0x00	; 0
     4d0:	80 93 42 01 	sts	0x0142, r24
     4d4:	90 93 43 01 	sts	0x0143, r25
     4d8:	a0 93 44 01 	sts	0x0144, r26
     4dc:	b0 93 45 01 	sts	0x0145, r27
	sprintf(menuStr2, "Parameters");
     4e0:	9b e0       	ldi	r25, 0x0B	; 11
     4e2:	ee ed       	ldi	r30, 0xDE	; 222
     4e4:	f0 e0       	ldi	r31, 0x00	; 0
     4e6:	a4 e3       	ldi	r26, 0x34	; 52
     4e8:	b1 e0       	ldi	r27, 0x01	; 1
     4ea:	01 90       	ld	r0, Z+
     4ec:	0d 92       	st	X+, r0
     4ee:	9a 95       	dec	r25
     4f0:	e1 f7       	brne	.-8      	; 0x4ea <buttonMenu+0x2a>
	LcdTask();
     4f2:	0e 94 b3 00 	call	0x166	; 0x166 <LcdTask>
	LCDGotoXY(15,0);
     4f6:	60 e0       	ldi	r22, 0x00	; 0
     4f8:	8f e0       	ldi	r24, 0x0F	; 15
     4fa:	0e 94 02 04 	call	0x804	; 0x804 <LCDGotoXY>
	LCDPutChar(1);	// display the up arrow
     4fe:	81 e0       	ldi	r24, 0x01	; 1
     500:	0e 94 1a 04 	call	0x834	; 0x834 <LCDPutChar>
	LCDGotoXY(14,1);
     504:	61 e0       	ldi	r22, 0x01	; 1
     506:	8e e0       	ldi	r24, 0x0E	; 14
     508:	0e 94 02 04 	call	0x804	; 0x804 <LCDGotoXY>
	LCDPutChar(0x7F);	// display the left arrow
     50c:	8f e7       	ldi	r24, 0x7F	; 127
     50e:	0e 94 1a 04 	call	0x834	; 0x834 <LCDPutChar>
	LCDGotoXY(15,1);
     512:	61 e0       	ldi	r22, 0x01	; 1
     514:	8f e0       	ldi	r24, 0x0F	; 15
     516:	0e 94 02 04 	call	0x804	; 0x804 <LCDGotoXY>
	LCDPutChar(0x7E);	// display the right arrow
     51a:	8e e7       	ldi	r24, 0x7E	; 126
     51c:	0e 94 1a 04 	call	0x834	; 0x834 <LCDPutChar>
	while(button != centralButton)
     520:	c4 33       	cpi	r28, 0x34	; 52
     522:	e9 f0       	breq	.+58     	; 0x55e <buttonMenu+0x9e>
	{
		button=getButton();
     524:	0e 94 a2 00 	call	0x144	; 0x144 <getButton>
		if(button != lastButton)
     528:	85 33       	cpi	r24, 0x35	; 53
     52a:	e1 f3       	breq	.-8      	; 0x524 <buttonMenu+0x64>
		{
			switch (button)
     52c:	81 33       	cpi	r24, 0x31	; 49
     52e:	61 f0       	breq	.+24     	; 0x548 <buttonMenu+0x88>
     530:	18 f4       	brcc	.+6      	; 0x538 <buttonMenu+0x78>
     532:	80 33       	cpi	r24, 0x30	; 48
     534:	31 f0       	breq	.+12     	; 0x542 <buttonMenu+0x82>
     536:	11 c0       	rjmp	.+34     	; 0x55a <buttonMenu+0x9a>
     538:	82 33       	cpi	r24, 0x32	; 50
     53a:	49 f0       	breq	.+18     	; 0x54e <buttonMenu+0x8e>
     53c:	83 33       	cpi	r24, 0x33	; 51
     53e:	51 f0       	breq	.+20     	; 0x554 <buttonMenu+0x94>
     540:	0c c0       	rjmp	.+24     	; 0x55a <buttonMenu+0x9a>
			{
				case rightButton:
				subMenuRight();
     542:	0e 94 d4 00 	call	0x1a8	; 0x1a8 <subMenuRight>
				break;
     546:	ee cf       	rjmp	.-36     	; 0x524 <buttonMenu+0x64>
				
				case upButton:
				subMenuUp();
     548:	0e 94 b0 01 	call	0x360	; 0x360 <subMenuUp>
				break;
     54c:	eb cf       	rjmp	.-42     	; 0x524 <buttonMenu+0x64>

				case downButton:
				subMenuDown();
     54e:	0e 94 06 02 	call	0x40c	; 0x40c <subMenuDown>
				break;
     552:	e8 cf       	rjmp	.-48     	; 0x524 <buttonMenu+0x64>

				case leftButton :
				subMenuLeft();
     554:	0e 94 42 01 	call	0x284	; 0x284 <subMenuLeft>
				break;
     558:	e5 cf       	rjmp	.-54     	; 0x524 <buttonMenu+0x64>
	LCDPutChar(1);	// display the up arrow
	LCDGotoXY(14,1);
	LCDPutChar(0x7F);	// display the left arrow
	LCDGotoXY(15,1);
	LCDPutChar(0x7E);	// display the right arrow
	while(button != centralButton)
     55a:	84 33       	cpi	r24, 0x34	; 52
     55c:	19 f7       	brne	.-58     	; 0x524 <buttonMenu+0x64>
		}
	}
	
	lastButton = button;

}
     55e:	cf 91       	pop	r28
     560:	08 95       	ret

00000562 <initFloorSensor>:

// Initialize the Floor Sensor.
void initFloorSensor(){

	// Set the directions.
	setInput(DDRB, L3);
     562:	bf 98       	cbi	0x17, 7	; 23
	setInput(DDRB, L2);
     564:	be 98       	cbi	0x17, 6	; 23
	setInput(DDRB, L1);
     566:	bd 98       	cbi	0x17, 5	; 23
	setInput(DDRB, C1);
     568:	bc 98       	cbi	0x17, 4	; 23
	setInput(DDRA, R1);
     56a:	d2 98       	cbi	0x1a, 2	; 26
	setInput(DDRA, R2);
     56c:	d1 98       	cbi	0x1a, 1	; 26
	setInput(DDRA, R3);
     56e:	d0 98       	cbi	0x1a, 0	; 26
     570:	08 95       	ret

00000572 <showFloorInfo>:
	return 0;
}


// Writes on display floor sensor values in Binary and dec
void showFloorInfo(uint8_t data){
     572:	4f 92       	push	r4
     574:	5f 92       	push	r5
     576:	6f 92       	push	r6
     578:	7f 92       	push	r7
     57a:	8f 92       	push	r8
     57c:	9f 92       	push	r9
     57e:	af 92       	push	r10
     580:	bf 92       	push	r11
     582:	cf 92       	push	r12
     584:	df 92       	push	r13
     586:	ef 92       	push	r14
     588:	ff 92       	push	r15
     58a:	0f 93       	push	r16
     58c:	1f 93       	push	r17
     58e:	cf 93       	push	r28
     590:	df 93       	push	r29
     592:	cd b7       	in	r28, 0x3d	; 61
     594:	de b7       	in	r29, 0x3e	; 62
     596:	64 97       	sbiw	r28, 0x14	; 20
     598:	0f b6       	in	r0, 0x3f	; 63
     59a:	f8 94       	cli
     59c:	de bf       	out	0x3e, r29	; 62
     59e:	0f be       	out	0x3f, r0	; 63
     5a0:	cd bf       	out	0x3d, r28	; 61
     5a2:	e8 2e       	mov	r14, r24

	char buffer[20];
	uint8_t i = 0;
	uint8_t value = 0;
	uint8_t dataTemp = data;
	LCDGotoXY(0,1);
     5a4:	61 e0       	ldi	r22, 0x01	; 1
     5a6:	80 e0       	ldi	r24, 0x00	; 0
     5a8:	0e 94 02 04 	call	0x804	; 0x804 <LCDGotoXY>
     5ac:	00 e0       	ldi	r16, 0x00	; 0
     5ae:	10 e0       	ldi	r17, 0x00	; 0

	while(i <=6){
			value = ((dataTemp & (64>>i)) && 1);
     5b0:	f1 2c       	mov	r15, r1
     5b2:	68 94       	set
     5b4:	88 24       	eor	r8, r8
     5b6:	86 f8       	bld	r8, 6
     5b8:	91 2c       	mov	r9, r1
     5ba:	44 24       	eor	r4, r4
     5bc:	43 94       	inc	r4
     5be:	71 2c       	mov	r7, r1
			sprintf(buffer, "%d", value);
     5c0:	0f 2e       	mov	r0, r31
     5c2:	f9 ee       	ldi	r31, 0xE9	; 233
     5c4:	af 2e       	mov	r10, r31
     5c6:	f0 e0       	ldi	r31, 0x00	; 0
     5c8:	bf 2e       	mov	r11, r31
     5ca:	f0 2d       	mov	r31, r0
     5cc:	ce 01       	movw	r24, r28
     5ce:	01 96       	adiw	r24, 0x01	; 1
     5d0:	6c 01       	movw	r12, r24
	uint8_t value = 0;
	uint8_t dataTemp = data;
	LCDGotoXY(0,1);

	while(i <=6){
			value = ((dataTemp & (64>>i)) && 1);
     5d2:	6e 2c       	mov	r6, r14
     5d4:	5f 2c       	mov	r5, r15
     5d6:	c4 01       	movw	r24, r8
     5d8:	00 2e       	mov	r0, r16
     5da:	02 c0       	rjmp	.+4      	; 0x5e0 <showFloorInfo+0x6e>
     5dc:	95 95       	asr	r25
     5de:	87 95       	ror	r24
     5e0:	0a 94       	dec	r0
     5e2:	e2 f7       	brpl	.-8      	; 0x5dc <showFloorInfo+0x6a>
     5e4:	8e 21       	and	r24, r14
     5e6:	9f 21       	and	r25, r15
     5e8:	24 2d       	mov	r18, r4
     5ea:	37 2d       	mov	r19, r7
     5ec:	89 2b       	or	r24, r25
     5ee:	09 f4       	brne	.+2      	; 0x5f2 <showFloorInfo+0x80>
     5f0:	27 2d       	mov	r18, r7
			sprintf(buffer, "%d", value);
     5f2:	3f 93       	push	r19
     5f4:	2f 93       	push	r18
     5f6:	bf 92       	push	r11
     5f8:	af 92       	push	r10
     5fa:	df 92       	push	r13
     5fc:	cf 92       	push	r12
     5fe:	0e 94 a9 0d 	call	0x1b52	; 0x1b52 <sprintf>
			LCDPutString(buffer);
     602:	c6 01       	movw	r24, r12
     604:	0e 94 42 04 	call	0x884	; 0x884 <LCDPutString>
     608:	0f 5f       	subi	r16, 0xFF	; 255
     60a:	1f 4f       	sbci	r17, 0xFF	; 255
	uint8_t i = 0;
	uint8_t value = 0;
	uint8_t dataTemp = data;
	LCDGotoXY(0,1);

	while(i <=6){
     60c:	0f 90       	pop	r0
     60e:	0f 90       	pop	r0
     610:	0f 90       	pop	r0
     612:	0f 90       	pop	r0
     614:	0f 90       	pop	r0
     616:	0f 90       	pop	r0
     618:	07 30       	cpi	r16, 0x07	; 7
     61a:	11 05       	cpc	r17, r1
     61c:	d1 f6       	brne	.-76     	; 0x5d2 <showFloorInfo+0x60>
			value = ((dataTemp & (64>>i)) && 1);
			sprintf(buffer, "%d", value);
			LCDPutString(buffer);
			i++;
	}
	sprintf(buffer, " %02d", data);
     61e:	5f 92       	push	r5
     620:	6f 92       	push	r6
     622:	8c ee       	ldi	r24, 0xEC	; 236
     624:	90 e0       	ldi	r25, 0x00	; 0
     626:	9f 93       	push	r25
     628:	8f 93       	push	r24
     62a:	8e 01       	movw	r16, r28
     62c:	0f 5f       	subi	r16, 0xFF	; 255
     62e:	1f 4f       	sbci	r17, 0xFF	; 255
     630:	1f 93       	push	r17
     632:	0f 93       	push	r16
     634:	0e 94 a9 0d 	call	0x1b52	; 0x1b52 <sprintf>
	LCDPutString(buffer);
     638:	c8 01       	movw	r24, r16
     63a:	0e 94 42 04 	call	0x884	; 0x884 <LCDPutString>
     63e:	0f 90       	pop	r0
     640:	0f 90       	pop	r0
     642:	0f 90       	pop	r0
     644:	0f 90       	pop	r0
     646:	0f 90       	pop	r0
     648:	0f 90       	pop	r0
}
     64a:	64 96       	adiw	r28, 0x14	; 20
     64c:	0f b6       	in	r0, 0x3f	; 63
     64e:	f8 94       	cli
     650:	de bf       	out	0x3e, r29	; 62
     652:	0f be       	out	0x3f, r0	; 63
     654:	cd bf       	out	0x3d, r28	; 61
     656:	df 91       	pop	r29
     658:	cf 91       	pop	r28
     65a:	1f 91       	pop	r17
     65c:	0f 91       	pop	r16
     65e:	ff 90       	pop	r15
     660:	ef 90       	pop	r14
     662:	df 90       	pop	r13
     664:	cf 90       	pop	r12
     666:	bf 90       	pop	r11
     668:	af 90       	pop	r10
     66a:	9f 90       	pop	r9
     66c:	8f 90       	pop	r8
     66e:	7f 90       	pop	r7
     670:	6f 90       	pop	r6
     672:	5f 90       	pop	r5
     674:	4f 90       	pop	r4
     676:	08 95       	ret

00000678 <readFloorSensors>:
	setInput(DDRA, R2);
	setInput(DDRA, R3);
}

// Read the current value from the floor sensors.
uint8_t readFloorSensors(){	
     678:	cf 93       	push	r28
	uint8_t data = ((PINA & 240) >> 1) | (PINB & 7);
     67a:	c9 b3       	in	r28, 0x19	; 25
     67c:	86 b3       	in	r24, 0x16	; 22
     67e:	c0 7f       	andi	r28, 0xF0	; 240
     680:	c6 95       	lsr	r28
     682:	87 70       	andi	r24, 0x07	; 7
     684:	c8 2b       	or	r28, r24

	// Write Floor sensor values on display.
	showFloorInfo(data);
     686:	8c 2f       	mov	r24, r28
     688:	0e 94 b9 02 	call	0x572	; 0x572 <showFloorInfo>
	return data;
}
     68c:	8c 2f       	mov	r24, r28
     68e:	cf 91       	pop	r28
     690:	08 95       	ret

00000692 <calcFloorError>:

// Calculates the error from floor sensor and change various flags.
signed char calcFloorError(){
     692:	cf 93       	push	r28

	static uint8_t oldData = 0;
	uint8_t data = 0;
	
	data = readFloorSensors();
     694:	0e 94 3c 03 	call	0x678	; 0x678 <readFloorSensors>
     698:	c8 2f       	mov	r28, r24
	// Check if on line, use new data. otherwise oldData
	// usefull if the robot undershots a line in a turn.
	// Checks if it was going straight before loosing the line
	// then indicate with a LostLine flag.
	
	if(data != 0){
     69a:	88 23       	and	r24, r24
     69c:	19 f0       	breq	.+6      	; 0x6a4 <calcFloorError+0x12>
		oldData = data;
     69e:	80 93 04 01 	sts	0x0104, r24
     6a2:	0d c0       	rjmp	.+26     	; 0x6be <calcFloorError+0x2c>
	}
	else{
		if((oldData == 8) || (oldData == 12) || (oldData == 24)){
     6a4:	c0 91 04 01 	lds	r28, 0x0104
     6a8:	8c 2f       	mov	r24, r28
     6aa:	8b 7f       	andi	r24, 0xFB	; 251
     6ac:	88 30       	cpi	r24, 0x08	; 8
     6ae:	11 f0       	breq	.+4      	; 0x6b4 <calcFloorError+0x22>
     6b0:	c8 31       	cpi	r28, 0x18	; 24
     6b2:	29 f4       	brne	.+10     	; 0x6be <calcFloorError+0x2c>
			setLostLineFlag(1);
     6b4:	81 e0       	ldi	r24, 0x01	; 1
     6b6:	0e 94 bc 06 	call	0xd78	; 0xd78 <setLostLineFlag>
			return 0;
     6ba:	80 e0       	ldi	r24, 0x00	; 0
     6bc:	6a c0       	rjmp	.+212    	; 0x792 <calcFloorError+0x100>
		}
		data = oldData;
	}

	// Check for Line beginning, only once
	if(getFoundLineFlag() != 2){
     6be:	0e 94 c5 06 	call	0xd8a	; 0xd8a <getFoundLineFlag>
     6c2:	82 30       	cpi	r24, 0x02	; 2
     6c4:	59 f0       	breq	.+22     	; 0x6dc <calcFloorError+0x4a>
     6c6:	8c 2f       	mov	r24, r28
     6c8:	88 71       	andi	r24, 0x18	; 24
		if((data & 0b0001000) && (data & 0b0010000) && (data & 0b0000100)){
     6ca:	88 31       	cpi	r24, 0x18	; 24
     6cc:	39 f4       	brne	.+14     	; 0x6dc <calcFloorError+0x4a>
     6ce:	c2 ff       	sbrs	r28, 2
     6d0:	05 c0       	rjmp	.+10     	; 0x6dc <calcFloorError+0x4a>
			setFoundLineFlag(1);
     6d2:	81 e0       	ldi	r24, 0x01	; 1
     6d4:	0e 94 b9 06 	call	0xd72	; 0xd72 <setFoundLineFlag>
			return 0;
     6d8:	80 e0       	ldi	r24, 0x00	; 0
     6da:	5b c0       	rjmp	.+182    	; 0x792 <calcFloorError+0x100>
		}
	}

	// Check for 360° mark, only once and only after Line beginning
	if((getThreeSixtyFlag() != 2) && (getFoundLineFlag() != 0)){
     6dc:	0e 94 bf 06 	call	0xd7e	; 0xd7e <getThreeSixtyFlag>
     6e0:	82 30       	cpi	r24, 0x02	; 2
     6e2:	59 f0       	breq	.+22     	; 0x6fa <calcFloorError+0x68>
     6e4:	0e 94 c5 06 	call	0xd8a	; 0xd8a <getFoundLineFlag>
     6e8:	88 23       	and	r24, r24
     6ea:	39 f0       	breq	.+14     	; 0x6fa <calcFloorError+0x68>
		if((data == 127) || (data == 107)){
     6ec:	cf 37       	cpi	r28, 0x7F	; 127
     6ee:	11 f0       	breq	.+4      	; 0x6f4 <calcFloorError+0x62>
     6f0:	cb 36       	cpi	r28, 0x6B	; 107
     6f2:	19 f4       	brne	.+6      	; 0x6fa <calcFloorError+0x68>
			setThreeSixtyFlag(1);
     6f4:	81 e0       	ldi	r24, 0x01	; 1
     6f6:	0e 94 b3 06 	call	0xd66	; 0xd66 <setThreeSixtyFlag>
		}
	}

	// Check for High speed mark, only after 360°
	if(getThreeSixtyFlag() == 2){
     6fa:	0e 94 bf 06 	call	0xd7e	; 0xd7e <getThreeSixtyFlag>
     6fe:	82 30       	cpi	r24, 0x02	; 2
     700:	39 f4       	brne	.+14     	; 0x710 <calcFloorError+0x7e>
		if((data == 124) || (data == 120)){
     702:	8c 2f       	mov	r24, r28
     704:	8b 7f       	andi	r24, 0xFB	; 251
     706:	88 37       	cpi	r24, 0x78	; 120
     708:	19 f4       	brne	.+6      	; 0x710 <calcFloorError+0x7e>
			setHighSpeedFlag(1);
     70a:	81 e0       	ldi	r24, 0x01	; 1
     70c:	0e 94 b6 06 	call	0xd6c	; 0xd6c <setHighSpeedFlag>
		}
	}

	// Check for end line mark, only after highSpeed.
	if(getHighSpeedFlag() == 2){
     710:	0e 94 c2 06 	call	0xd84	; 0xd84 <getHighSpeedFlag>
     714:	82 30       	cpi	r24, 0x02	; 2
     716:	39 f4       	brne	.+14     	; 0x726 <calcFloorError+0x94>
		if((data == 127) || (data == 119)){
     718:	8c 2f       	mov	r24, r28
     71a:	87 7f       	andi	r24, 0xF7	; 247
     71c:	87 37       	cpi	r24, 0x77	; 119
     71e:	19 f4       	brne	.+6      	; 0x726 <calcFloorError+0x94>
			setStopFlag(1);
     720:	81 e0       	ldi	r24, 0x01	; 1
     722:	0e 94 b0 06 	call	0xd60	; 0xd60 <setStopFlag>
		}
	}
	
	if(getFoundLineFlag()){
     726:	0e 94 c5 06 	call	0xd8a	; 0xd8a <getFoundLineFlag>
     72a:	88 23       	and	r24, r24
     72c:	d9 f0       	breq	.+54     	; 0x764 <calcFloorError+0xd2>

		// Check Position on line.
		// Going Right returns positive
		// Going left returns negative.
		if((data == 96) || (data == 64)){
     72e:	8c 2f       	mov	r24, r28
     730:	8f 7d       	andi	r24, 0xDF	; 223
     732:	80 34       	cpi	r24, 0x40	; 64
     734:	c9 f0       	breq	.+50     	; 0x768 <calcFloorError+0xd6>
			return 15;
		}
		if(data == 32){
     736:	c0 32       	cpi	r28, 0x20	; 32
     738:	c9 f0       	breq	.+50     	; 0x76c <calcFloorError+0xda>
			return 13;
		}
		if(data == 48){
     73a:	c0 33       	cpi	r28, 0x30	; 48
     73c:	c9 f0       	breq	.+50     	; 0x770 <calcFloorError+0xde>
			return 8;
		}
		if(data == 16){
     73e:	c0 31       	cpi	r28, 0x10	; 16
     740:	c9 f0       	breq	.+50     	; 0x774 <calcFloorError+0xe2>
			return 6;
		}		
		if(data == 24){
     742:	c8 31       	cpi	r28, 0x18	; 24
     744:	c9 f0       	breq	.+50     	; 0x778 <calcFloorError+0xe6>
			return 1;
		}
		if(data == 8){
     746:	c8 30       	cpi	r28, 0x08	; 8
     748:	c9 f0       	breq	.+50     	; 0x77c <calcFloorError+0xea>
			return 0;
		}
		if(data == 12){
     74a:	cc 30       	cpi	r28, 0x0C	; 12
     74c:	c9 f0       	breq	.+50     	; 0x780 <calcFloorError+0xee>
			return -1;
		}
		if(data == 4){
     74e:	c4 30       	cpi	r28, 0x04	; 4
     750:	c9 f0       	breq	.+50     	; 0x784 <calcFloorError+0xf2>
			return -6;
		}
		if(data == 6){
     752:	c6 30       	cpi	r28, 0x06	; 6
     754:	c9 f0       	breq	.+50     	; 0x788 <calcFloorError+0xf6>
			return -8;
		}
		if(data == 2){
     756:	c2 30       	cpi	r28, 0x02	; 2
     758:	c9 f0       	breq	.+50     	; 0x78c <calcFloorError+0xfa>
			return -13;
		}
		if((data == 3) || (data == 1)){
     75a:	cd 7f       	andi	r28, 0xFD	; 253
     75c:	c1 30       	cpi	r28, 0x01	; 1
     75e:	c1 f4       	brne	.+48     	; 0x790 <calcFloorError+0xfe>
			return -15;
     760:	81 ef       	ldi	r24, 0xF1	; 241
     762:	17 c0       	rjmp	.+46     	; 0x792 <calcFloorError+0x100>
		}
	}
	return 0;
     764:	80 e0       	ldi	r24, 0x00	; 0
     766:	15 c0       	rjmp	.+42     	; 0x792 <calcFloorError+0x100>

		// Check Position on line.
		// Going Right returns positive
		// Going left returns negative.
		if((data == 96) || (data == 64)){
			return 15;
     768:	8f e0       	ldi	r24, 0x0F	; 15
     76a:	13 c0       	rjmp	.+38     	; 0x792 <calcFloorError+0x100>
		}
		if(data == 32){
			return 13;
     76c:	8d e0       	ldi	r24, 0x0D	; 13
     76e:	11 c0       	rjmp	.+34     	; 0x792 <calcFloorError+0x100>
		}
		if(data == 48){
			return 8;
     770:	88 e0       	ldi	r24, 0x08	; 8
     772:	0f c0       	rjmp	.+30     	; 0x792 <calcFloorError+0x100>
		}
		if(data == 16){
			return 6;
     774:	86 e0       	ldi	r24, 0x06	; 6
     776:	0d c0       	rjmp	.+26     	; 0x792 <calcFloorError+0x100>
		}		
		if(data == 24){
			return 1;
     778:	81 e0       	ldi	r24, 0x01	; 1
     77a:	0b c0       	rjmp	.+22     	; 0x792 <calcFloorError+0x100>
		}
		if(data == 8){
			return 0;
     77c:	80 e0       	ldi	r24, 0x00	; 0
     77e:	09 c0       	rjmp	.+18     	; 0x792 <calcFloorError+0x100>
		}
		if(data == 12){
			return -1;
     780:	8f ef       	ldi	r24, 0xFF	; 255
     782:	07 c0       	rjmp	.+14     	; 0x792 <calcFloorError+0x100>
		}
		if(data == 4){
			return -6;
     784:	8a ef       	ldi	r24, 0xFA	; 250
     786:	05 c0       	rjmp	.+10     	; 0x792 <calcFloorError+0x100>
		}
		if(data == 6){
			return -8;
     788:	88 ef       	ldi	r24, 0xF8	; 248
     78a:	03 c0       	rjmp	.+6      	; 0x792 <calcFloorError+0x100>
		}
		if(data == 2){
			return -13;
     78c:	83 ef       	ldi	r24, 0xF3	; 243
     78e:	01 c0       	rjmp	.+2      	; 0x792 <calcFloorError+0x100>
		}
		if((data == 3) || (data == 1)){
			return -15;
		}
	}
	return 0;
     790:	80 e0       	ldi	r24, 0x00	; 0
}
     792:	cf 91       	pop	r28
     794:	08 95       	ret

00000796 <LCD_delay>:
// Delay. Circa 200 us at 10 MHz
// The data sheet says that 40 us is sufficient, but the displays we have
// require more than 100 us to work properly.
void LCD_delay(void) __attribute__ ((noinline)); // noinline prevents problems when optimizing with option -O3
void LCD_delay(void)  {
   __asm__ __volatile__("ldi r31,65 \n 1:\n dec r31 \n brne 1b" ::: "r31");
     796:	f1 e4       	ldi	r31, 0x41	; 65
     798:	fa 95       	dec	r31
     79a:	f1 f7       	brne	.-4      	; 0x798 <LCD_delay+0x2>
     79c:	08 95       	ret

0000079e <LCD_write_nibble>:
}

// Write 4 bits
static void LCD_write_nibble(char data) {
   const char DataMask = 0x0F << LCD_DATA4;
   LCD_PORT = (LCD_PORT & ~DataMask) | (data & DataMask);
     79e:	95 b3       	in	r25, 0x15	; 21
     7a0:	80 7f       	andi	r24, 0xF0	; 240
     7a2:	9f 70       	andi	r25, 0x0F	; 15
     7a4:	89 2b       	or	r24, r25
     7a6:	85 bb       	out	0x15, r24	; 21
   LCD_PORT |= (1<<LCD_ENABLE); // EN=1
     7a8:	ab 9a       	sbi	0x15, 3	; 21
   LCD_delay();
     7aa:	0e 94 cb 03 	call	0x796	; 0x796 <LCD_delay>
   LCD_PORT &= ~(1<<LCD_ENABLE); // EN=0
     7ae:	ab 98       	cbi	0x15, 3	; 21
   LCD_delay();
     7b0:	0e 94 cb 03 	call	0x796	; 0x796 <LCD_delay>
     7b4:	08 95       	ret

000007b6 <LCD_write_data>:
}

// Write 8 bits. RS = 0 or 1
static void LCD_write_data(unsigned char data) {
     7b6:	cf 93       	push	r28
     7b8:	c8 2f       	mov	r28, r24
   LCD_write_nibble(data);            // RD=0, write MSN
     7ba:	0e 94 cf 03 	call	0x79e	; 0x79e <LCD_write_nibble>
   LCD_write_nibble(data << 4);       // write LSN
     7be:	8c 2f       	mov	r24, r28
     7c0:	82 95       	swap	r24
     7c2:	80 7f       	andi	r24, 0xF0	; 240
     7c4:	0e 94 cf 03 	call	0x79e	; 0x79e <LCD_write_nibble>
}
     7c8:	cf 91       	pop	r28
     7ca:	08 95       	ret

000007cc <LCD_long_delay>:
}

// Long delay. Circa 26 ms at 10 MHz
void LCD_long_delay(void) __attribute__ ((noinline));
void LCD_long_delay(void) {
   __asm__ __volatile__("clr r26 \n clr r27 \n 2:\n sbiw r26,1\n brne 2b \n" ::: "r26", "r27");
     7cc:	aa 27       	eor	r26, r26
     7ce:	bb 27       	eor	r27, r27
     7d0:	11 97       	sbiw	r26, 0x01	; 1
     7d2:	f1 f7       	brne	.-4      	; 0x7d0 <LCD_long_delay+0x4>
     7d4:	08 95       	ret

000007d6 <LCDClear>:
   
}

// Clear the LCD display
void LCDClear(void) {
   LCD_long_delay();
     7d6:	0e 94 e6 03 	call	0x7cc	; 0x7cc <LCD_long_delay>
   LCD_PORT &= ~(1<<LCD_RS);          // RS=0
     7da:	aa 98       	cbi	0x15, 2	; 21
   LCD_write_data(2);                 // cursor home
     7dc:	82 e0       	ldi	r24, 0x02	; 2
     7de:	0e 94 db 03 	call	0x7b6	; 0x7b6 <LCD_write_data>
   LCD_long_delay();
     7e2:	0e 94 e6 03 	call	0x7cc	; 0x7cc <LCD_long_delay>
   LCD_write_data(0xC);               // cursor off
     7e6:	8c e0       	ldi	r24, 0x0C	; 12
     7e8:	0e 94 db 03 	call	0x7b6	; 0x7b6 <LCD_write_data>
   LCD_long_delay();
     7ec:	0e 94 e6 03 	call	0x7cc	; 0x7cc <LCD_long_delay>
   LCD_write_data(1);                 // clear
     7f0:	81 e0       	ldi	r24, 0x01	; 1
     7f2:	0e 94 db 03 	call	0x7b6	; 0x7b6 <LCD_write_data>
   LCD_long_delay();
     7f6:	0e 94 e6 03 	call	0x7cc	; 0x7cc <LCD_long_delay>
   LCD_x = LCD_y = 0;
     7fa:	10 92 06 01 	sts	0x0106, r1
     7fe:	10 92 07 01 	sts	0x0107, r1
     802:	08 95       	ret

00000804 <LCDGotoXY>:
}

// Set the LCD display position
void LCDGotoXY(unsigned char x, unsigned char y) {
     804:	cf 93       	push	r28
     806:	df 93       	push	r29
     808:	d8 2f       	mov	r29, r24
     80a:	c6 2f       	mov	r28, r22
   LCD_delay();
     80c:	0e 94 cb 03 	call	0x796	; 0x796 <LCD_delay>
   LCD_PORT &= ~(1<<LCD_RS);       // RS=0
     810:	aa 98       	cbi	0x15, 2	; 21
   LCD_write_data(LCD_base_y[y]+x);
     812:	ec 2f       	mov	r30, r28
     814:	f0 e0       	ldi	r31, 0x00	; 0
     816:	ec 59       	subi	r30, 0x9C	; 156
     818:	ff 4f       	sbci	r31, 0xFF	; 255
     81a:	80 81       	ld	r24, Z
     81c:	8d 0f       	add	r24, r29
     81e:	0e 94 db 03 	call	0x7b6	; 0x7b6 <LCD_write_data>
   LCD_x = x;
     822:	d0 93 07 01 	sts	0x0107, r29
   LCD_y = y;
     826:	c0 93 06 01 	sts	0x0106, r28
   LCD_delay();
     82a:	0e 94 cb 03 	call	0x796	; 0x796 <LCD_delay>
   //LCD_long_delay();
}
     82e:	df 91       	pop	r29
     830:	cf 91       	pop	r28
     832:	08 95       	ret

00000834 <LCDPutChar>:
   char c;
   for (; (c = *str) != 0; str++) LCDPutChar(c);
}

// write a single ASCII character to the display
void LCDPutChar(char c) {
     834:	cf 93       	push	r28
     836:	c8 2f       	mov	r28, r24
   if (c == '\n') {
     838:	8a 30       	cpi	r24, 0x0A	; 10
     83a:	49 f4       	brne	.+18     	; 0x84e <LCDPutChar+0x1a>
      // newline character goes to next line
      ++LCD_y;
     83c:	60 91 06 01 	lds	r22, 0x0106
     840:	6f 5f       	subi	r22, 0xFF	; 255
     842:	60 93 06 01 	sts	0x0106, r22
      LCDGotoXY(0,LCD_y);
     846:	80 e0       	ldi	r24, 0x00	; 0
     848:	0e 94 02 04 	call	0x804	; 0x804 <LCDGotoXY>
     84c:	19 c0       	rjmp	.+50     	; 0x880 <__stack+0x21>
   }
   else {
      // any other character
      ++LCD_x;
     84e:	90 91 07 01 	lds	r25, 0x0107
     852:	9f 5f       	subi	r25, 0xFF	; 255
     854:	90 93 07 01 	sts	0x0107, r25
      if (LCD_x>LCD_maxx) {
     858:	80 91 05 01 	lds	r24, 0x0105
     85c:	89 17       	cp	r24, r25
     85e:	40 f4       	brcc	.+16     	; 0x870 <__stack+0x11>
         // end of line. go to next line
         ++LCD_y;
     860:	60 91 06 01 	lds	r22, 0x0106
     864:	6f 5f       	subi	r22, 0xFF	; 255
     866:	60 93 06 01 	sts	0x0106, r22
         LCDGotoXY(0,LCD_y);
     86a:	80 e0       	ldi	r24, 0x00	; 0
     86c:	0e 94 02 04 	call	0x804	; 0x804 <LCDGotoXY>
      }
      LCD_delay();
     870:	0e 94 cb 03 	call	0x796	; 0x796 <LCD_delay>
      LCD_PORT |= (1<<LCD_RS);  // RS = 1
     874:	aa 9a       	sbi	0x15, 2	; 21
      LCD_write_data(c);
     876:	8c 2f       	mov	r24, r28
     878:	0e 94 db 03 	call	0x7b6	; 0x7b6 <LCD_write_data>
      LCD_delay();
     87c:	0e 94 cb 03 	call	0x796	; 0x796 <LCD_delay>
   }
}
     880:	cf 91       	pop	r28
     882:	08 95       	ret

00000884 <LCDPutString>:
   LCD_delay();
   //LCD_long_delay();
}

// write a zero-terminated ASCII string to the display
void LCDPutString(const char *str) {
     884:	cf 93       	push	r28
     886:	df 93       	push	r29
     888:	ec 01       	movw	r28, r24
   char c;
   for (; (c = *str) != 0; str++) LCDPutChar(c);
     88a:	88 81       	ld	r24, Y
     88c:	88 23       	and	r24, r24
     88e:	31 f0       	breq	.+12     	; 0x89c <LCDPutString+0x18>
     890:	21 96       	adiw	r28, 0x01	; 1
     892:	0e 94 1a 04 	call	0x834	; 0x834 <LCDPutChar>
     896:	89 91       	ld	r24, Y+
     898:	81 11       	cpse	r24, r1
     89a:	fb cf       	rjmp	.-10     	; 0x892 <LCDPutString+0xe>
}
     89c:	df 91       	pop	r29
     89e:	cf 91       	pop	r28
     8a0:	08 95       	ret

000008a2 <LCDInit>:
//                       Public functions                              //
//                                                                     //
/////////////////////////////////////////////////////////////////////////

// Initialize the LCD controller. Specify the number of columns
void LCDInit(unsigned char lcd_columns) {
     8a2:	ef 92       	push	r14
     8a4:	ff 92       	push	r15
     8a6:	0f 93       	push	r16
     8a8:	1f 93       	push	r17
     8aa:	cf 93       	push	r28
     8ac:	df 93       	push	r29
     8ae:	cd b7       	in	r28, 0x3d	; 61
     8b0:	de b7       	in	r29, 0x3e	; 62
     8b2:	60 97       	sbiw	r28, 0x10	; 16
     8b4:	0f b6       	in	r0, 0x3f	; 63
     8b6:	f8 94       	cli
     8b8:	de bf       	out	0x3e, r29	; 62
     8ba:	0f be       	out	0x3f, r0	; 63
     8bc:	cd bf       	out	0x3d, r28	; 61
	const uint8_t cUp[] = {0x04,0x0E,0x15,0x04,0x04,0x00,0x00,0x00,};
     8be:	98 e0       	ldi	r25, 0x08	; 8
     8c0:	e7 e7       	ldi	r30, 0x77	; 119
     8c2:	f0 e0       	ldi	r31, 0x00	; 0
     8c4:	de 01       	movw	r26, r28
     8c6:	11 96       	adiw	r26, 0x01	; 1
     8c8:	01 90       	ld	r0, Z+
     8ca:	0d 92       	st	X+, r0
     8cc:	9a 95       	dec	r25
     8ce:	e1 f7       	brne	.-8      	; 0x8c8 <LCDInit+0x26>
	const uint8_t cDown[] = {0x04,0x04,0x15,0x0E,0x04,0x00,0x00,0x00};
     8d0:	98 e0       	ldi	r25, 0x08	; 8
     8d2:	ef e7       	ldi	r30, 0x7F	; 127
     8d4:	f0 e0       	ldi	r31, 0x00	; 0
     8d6:	de 01       	movw	r26, r28
     8d8:	19 96       	adiw	r26, 0x09	; 9
     8da:	01 90       	ld	r0, Z+
     8dc:	0d 92       	st	X+, r0
     8de:	9a 95       	dec	r25
     8e0:	e1 f7       	brne	.-8      	; 0x8da <LCDInit+0x38>

   LCD_PORT &= ~((1<<LCD_ENABLE) | (1<<LCD_RS)); // EN=0, RS=0
     8e2:	95 b3       	in	r25, 0x15	; 21
     8e4:	93 7f       	andi	r25, 0xF3	; 243
     8e6:	95 bb       	out	0x15, r25	; 21
   LCD_PORT &= ~(1<<LCD_RD); // Set RD = 0 in case it is connected
     8e8:	a9 98       	cbi	0x15, 1	; 21
   LCD_DIRECTION |= (0xF << LCD_DATA4) | (1<<LCD_RS) | (1<<LCD_ENABLE) ; // set all as output
     8ea:	94 b3       	in	r25, 0x14	; 20
     8ec:	9c 6f       	ori	r25, 0xFC	; 252
     8ee:	94 bb       	out	0x14, r25	; 20
   //LCD_DIRECTION |= (1<<LCD_RD); // set RD as output if it is connected
   LCD_maxx = lcd_columns;
     8f0:	80 93 05 01 	sts	0x0105, r24
   LCD_base_y[2] = lcd_columns+0x80;
     8f4:	e4 e6       	ldi	r30, 0x64	; 100
     8f6:	f0 e0       	ldi	r31, 0x00	; 0
     8f8:	90 e8       	ldi	r25, 0x80	; 128
     8fa:	98 0f       	add	r25, r24
     8fc:	92 83       	std	Z+2, r25	; 0x02
   LCD_base_y[3] = lcd_columns+0xc0;
     8fe:	80 54       	subi	r24, 0x40	; 64
     900:	83 83       	std	Z+3, r24	; 0x03
   LCD_long_delay();
     902:	0e 94 e6 03 	call	0x7cc	; 0x7cc <LCD_long_delay>
   LCD_write_nibble(0x30);
     906:	80 e3       	ldi	r24, 0x30	; 48
     908:	0e 94 cf 03 	call	0x79e	; 0x79e <LCD_write_nibble>
   LCD_long_delay();
     90c:	0e 94 e6 03 	call	0x7cc	; 0x7cc <LCD_long_delay>
   LCD_write_nibble(0x30);
     910:	80 e3       	ldi	r24, 0x30	; 48
     912:	0e 94 cf 03 	call	0x79e	; 0x79e <LCD_write_nibble>
   LCD_long_delay();
     916:	0e 94 e6 03 	call	0x7cc	; 0x7cc <LCD_long_delay>
   LCD_write_nibble(0x30);
     91a:	80 e3       	ldi	r24, 0x30	; 48
     91c:	0e 94 cf 03 	call	0x79e	; 0x79e <LCD_write_nibble>
   LCD_long_delay();
     920:	0e 94 e6 03 	call	0x7cc	; 0x7cc <LCD_long_delay>
   LCD_write_nibble(0x20);
     924:	80 e2       	ldi	r24, 0x20	; 32
     926:	0e 94 cf 03 	call	0x79e	; 0x79e <LCD_write_nibble>
   LCD_long_delay();
     92a:	0e 94 e6 03 	call	0x7cc	; 0x7cc <LCD_long_delay>
   LCD_write_data(0x28);
     92e:	88 e2       	ldi	r24, 0x28	; 40
     930:	0e 94 db 03 	call	0x7b6	; 0x7b6 <LCD_write_data>
   LCD_long_delay();
     934:	0e 94 e6 03 	call	0x7cc	; 0x7cc <LCD_long_delay>
   LCD_write_data(4);
     938:	84 e0       	ldi	r24, 0x04	; 4
     93a:	0e 94 db 03 	call	0x7b6	; 0x7b6 <LCD_write_data>
   LCD_long_delay();
     93e:	0e 94 e6 03 	call	0x7cc	; 0x7cc <LCD_long_delay>
   LCD_write_data(0x85);
     942:	85 e8       	ldi	r24, 0x85	; 133
     944:	0e 94 db 03 	call	0x7b6	; 0x7b6 <LCD_write_data>
   LCD_long_delay();
     948:	0e 94 e6 03 	call	0x7cc	; 0x7cc <LCD_long_delay>
   LCD_PORT &= ~(1<<LCD_RS);
     94c:	aa 98       	cbi	0x15, 2	; 21
   LCD_write_data(6);
     94e:	86 e0       	ldi	r24, 0x06	; 6
     950:	0e 94 db 03 	call	0x7b6	; 0x7b6 <LCD_write_data>
// Return:
/******************************************************************************/
static void LcdCgramWr (uint8_t addr, const uint8_t *d)
{                        
   uint8_t i;
   LCD_write_data(0x40 + 8*addr);
     954:	80 e4       	ldi	r24, 0x40	; 64
     956:	0e 94 db 03 	call	0x7b6	; 0x7b6 <LCD_write_data>
     95a:	8e 01       	movw	r16, r28
     95c:	07 5f       	subi	r16, 0xF7	; 247
     95e:	1f 4f       	sbci	r17, 0xFF	; 255
        // cmd to LCD to receive data to CG-Ram
   for (i = 0; i <= 7; i++) {
     960:	7e 01       	movw	r14, r28
     962:	81 e1       	ldi	r24, 0x11	; 17
     964:	e8 0e       	add	r14, r24
     966:	f1 1c       	adc	r15, r1
    
      LCDPutChar(*d);               // tx 8 char to CG-Ram
     968:	f8 01       	movw	r30, r16
     96a:	81 91       	ld	r24, Z+
     96c:	8f 01       	movw	r16, r30
     96e:	0e 94 1a 04 	call	0x834	; 0x834 <LCDPutChar>
static void LcdCgramWr (uint8_t addr, const uint8_t *d)
{                        
   uint8_t i;
   LCD_write_data(0x40 + 8*addr);
        // cmd to LCD to receive data to CG-Ram
   for (i = 0; i <= 7; i++) {
     972:	0e 15       	cp	r16, r14
     974:	1f 05       	cpc	r17, r15
     976:	c1 f7       	brne	.-16     	; 0x968 <LCDInit+0xc6>
    
      LCDPutChar(*d);               // tx 8 char to CG-Ram
      d++;                          // point to next value
   }
   LCD_write_data(0x80);                 // back to DD ram
     978:	80 e8       	ldi	r24, 0x80	; 128
     97a:	0e 94 db 03 	call	0x7b6	; 0x7b6 <LCD_write_data>
// Return:
/******************************************************************************/
static void LcdCgramWr (uint8_t addr, const uint8_t *d)
{                        
   uint8_t i;
   LCD_write_data(0x40 + 8*addr);
     97e:	88 e4       	ldi	r24, 0x48	; 72
     980:	0e 94 db 03 	call	0x7b6	; 0x7b6 <LCD_write_data>
     984:	8e 01       	movw	r16, r28
     986:	0f 5f       	subi	r16, 0xFF	; 255
     988:	1f 4f       	sbci	r17, 0xFF	; 255
        // cmd to LCD to receive data to CG-Ram
   for (i = 0; i <= 7; i++) {
     98a:	7e 01       	movw	r14, r28
     98c:	f9 e0       	ldi	r31, 0x09	; 9
     98e:	ef 0e       	add	r14, r31
     990:	f1 1c       	adc	r15, r1
    
      LCDPutChar(*d);               // tx 8 char to CG-Ram
     992:	f8 01       	movw	r30, r16
     994:	81 91       	ld	r24, Z+
     996:	8f 01       	movw	r16, r30
     998:	0e 94 1a 04 	call	0x834	; 0x834 <LCDPutChar>
static void LcdCgramWr (uint8_t addr, const uint8_t *d)
{                        
   uint8_t i;
   LCD_write_data(0x40 + 8*addr);
        // cmd to LCD to receive data to CG-Ram
   for (i = 0; i <= 7; i++) {
     99c:	0e 15       	cp	r16, r14
     99e:	1f 05       	cpc	r17, r15
     9a0:	c1 f7       	brne	.-16     	; 0x992 <LCDInit+0xf0>
    
      LCDPutChar(*d);               // tx 8 char to CG-Ram
      d++;                          // point to next value
   }
   LCD_write_data(0x80);                 // back to DD ram
     9a2:	80 e8       	ldi	r24, 0x80	; 128
     9a4:	0e 94 db 03 	call	0x7b6	; 0x7b6 <LCD_write_data>
   LCD_PORT &= ~(1<<LCD_RS);
   LCD_write_data(6);
   
   LcdCgramWr(0,cDown);
   LcdCgramWr(1,cUp);
   LCDClear();
     9a8:	0e 94 eb 03 	call	0x7d6	; 0x7d6 <LCDClear>
   
}
     9ac:	60 96       	adiw	r28, 0x10	; 16
     9ae:	0f b6       	in	r0, 0x3f	; 63
     9b0:	f8 94       	cli
     9b2:	de bf       	out	0x3e, r29	; 62
     9b4:	0f be       	out	0x3f, r0	; 63
     9b6:	cd bf       	out	0x3d, r28	; 61
     9b8:	df 91       	pop	r29
     9ba:	cf 91       	pop	r28
     9bc:	1f 91       	pop	r17
     9be:	0f 91       	pop	r16
     9c0:	ff 90       	pop	r15
     9c2:	ef 90       	pop	r14
     9c4:	08 95       	ret

000009c6 <LEDWrite>:
	LEDUpdate();
}

//Send data through SPI
void LEDWrite(uint8_t data){
	SPDR = data;
     9c6:	8f b9       	out	0x0f, r24	; 15
	while(!(SPSR & 0b10000000)){}
     9c8:	77 9b       	sbis	0x0e, 7	; 14
     9ca:	fe cf       	rjmp	.-4      	; 0x9c8 <LEDWrite+0x2>
}
     9cc:	08 95       	ret

000009ce <LEDUpdate>:

// Send new values to shift registers.
void LEDUpdate(){
	setLow(PORTB, SPI_SS);
     9ce:	c4 98       	cbi	0x18, 4	; 24
	LEDWrite(ledBank1);
     9d0:	80 91 68 00 	lds	r24, 0x0068
     9d4:	0e 94 e3 04 	call	0x9c6	; 0x9c6 <LEDWrite>
	LEDWrite(ledBank0);
     9d8:	80 91 14 01 	lds	r24, 0x0114
     9dc:	0e 94 e3 04 	call	0x9c6	; 0x9c6 <LEDWrite>
	setHigh(PORTB, SPI_SS);
     9e0:	c4 9a       	sbi	0x18, 4	; 24
     9e2:	08 95       	ret

000009e4 <LEDInit>:
	// bit4 MSTR	1 = Set to Master.
	// bit3 CPOL	1 = SCK low when idle
	// bit2 CPHA	1 = setup falling, sample rising (mode3)
	// bit1	SPR1	0 = fosc/4 = 2.5 MHz
	// bit0 SPR0 	0
	SPCR = 0b01011100;
     9e4:	8c e5       	ldi	r24, 0x5C	; 92
     9e6:	8d b9       	out	0x0d, r24	; 13

	// SPI Status Register SPSR
	SPSR = 0b00000000;
     9e8:	1e b8       	out	0x0e, r1	; 14

	//set directions
	setOutput(DDRB, SPI_CLK);
     9ea:	bf 9a       	sbi	0x17, 7	; 23
	setOutput(DDRB, SPI_MOSI);
     9ec:	bd 9a       	sbi	0x17, 5	; 23
	setOutput(DDRB, SPI_SS);
     9ee:	bc 9a       	sbi	0x17, 4	; 23
	setOutput(DDRC, LED_OE);
     9f0:	a1 9a       	sbi	0x14, 1	; 20

	// Set the initial output values for outputs
	setLow(PORTB, SPI_MOSI);
     9f2:	c5 98       	cbi	0x18, 5	; 24
	setLow(PORTB, SPI_SS);
     9f4:	c4 98       	cbi	0x18, 4	; 24
	setHigh(PORTC, LED_OE);		//default off
     9f6:	a9 9a       	sbi	0x15, 1	; 21

	// Initilize Timer/Counter 2		
	TCCR2 = 0b00001101;
     9f8:	8d e0       	ldi	r24, 0x0D	; 13
     9fa:	85 bd       	out	0x25, r24	; 37
	// WGM CTC, OCR2 is TOP
	// clk/128 prescaler = 78.125 Hz
	
	TCNT2 = 0;	// reset counter0
     9fc:	14 bc       	out	0x24, r1	; 36
	OCR2 = 25;	// Counter divisor 78.125 Hz/25 = 3005 Hz 
     9fe:	89 e1       	ldi	r24, 0x19	; 25
     a00:	83 bd       	out	0x23, r24	; 35

	// Update, set all Led's off
	LEDUpdate();
     a02:	0e 94 e7 04 	call	0x9ce	; 0x9ce <LEDUpdate>
     a06:	08 95       	ret

00000a08 <LEDEnable>:
	setHigh(PORTB, SPI_SS);
}

// Enable All Leds
void LEDEnable(){
	setLow(PORTC,LED_OE);
     a08:	a9 98       	cbi	0x15, 1	; 21
     a0a:	08 95       	ret

00000a0c <LEDLcdBackLightOn>:
	setHigh(PORTC, LED_OE);
}

// Turn LCD backlight on
void LEDLcdBackLightOn(){
	ledBank1 |= 0b00000001;
     a0c:	80 91 68 00 	lds	r24, 0x0068
     a10:	81 60       	ori	r24, 0x01	; 1
     a12:	80 93 68 00 	sts	0x0068, r24
	LEDUpdate();
     a16:	0e 94 e7 04 	call	0x9ce	; 0x9ce <LEDUpdate>
     a1a:	08 95       	ret

00000a1c <setRed>:
void LEDChangeLed(uint8_t bank, uint8_t data){
	if(bank == 0){
		ledBank0 = data;
	}
	if(bank == 1){
		ledBank1 = data;
     a1c:	8c e7       	ldi	r24, 0x7C	; 124
     a1e:	80 93 68 00 	sts	0x0068, r24
	}
	LEDUpdate();
     a22:	0e 94 e7 04 	call	0x9ce	; 0x9ce <LEDUpdate>
     a26:	08 95       	ret

00000a28 <setGreen>:
void LEDChangeLed(uint8_t bank, uint8_t data){
	if(bank == 0){
		ledBank0 = data;
	}
	if(bank == 1){
		ledBank1 = data;
     a28:	8a eb       	ldi	r24, 0xBA	; 186
     a2a:	80 93 68 00 	sts	0x0068, r24
	}
	LEDUpdate();
     a2e:	0e 94 e7 04 	call	0x9ce	; 0x9ce <LEDUpdate>
     a32:	08 95       	ret

00000a34 <setBlue>:
void LEDChangeLed(uint8_t bank, uint8_t data){
	if(bank == 0){
		ledBank0 = data;
	}
	if(bank == 1){
		ledBank1 = data;
     a34:	86 ed       	ldi	r24, 0xD6	; 214
     a36:	80 93 68 00 	sts	0x0068, r24
	}
	LEDUpdate();
     a3a:	0e 94 e7 04 	call	0x9ce	; 0x9ce <LEDUpdate>
     a3e:	08 95       	ret

00000a40 <allOff>:
void LEDChangeLed(uint8_t bank, uint8_t data){
	if(bank == 0){
		ledBank0 = data;
	}
	if(bank == 1){
		ledBank1 = data;
     a40:	8e ef       	ldi	r24, 0xFE	; 254
     a42:	80 93 68 00 	sts	0x0068, r24
	}
	LEDUpdate();
     a46:	0e 94 e7 04 	call	0x9ce	; 0x9ce <LEDUpdate>
     a4a:	08 95       	ret

00000a4c <LEDVoltage>:
}

// Get a ADC value for battery and decode for Led's 
void LEDVoltage(){
	
	int ADCValue = AdcConvert(3);
     a4c:	83 e0       	ldi	r24, 0x03	; 3
     a4e:	0e 94 50 00 	call	0xa0	; 0xa0 <AdcConvert>

	if(ADCValue >= 845){
     a52:	8d 34       	cpi	r24, 0x4D	; 77
     a54:	23 e0       	ldi	r18, 0x03	; 3
     a56:	92 07       	cpc	r25, r18
     a58:	34 f0       	brlt	.+12     	; 0xa66 <LEDVoltage+0x1a>
Blue left	246		3
blue right	222		5 */

void LEDChangeLed(uint8_t bank, uint8_t data){
	if(bank == 0){
		ledBank0 = data;
     a5a:	8f ef       	ldi	r24, 0xFF	; 255
     a5c:	80 93 14 01 	sts	0x0114, r24
	}
	if(bank == 1){
		ledBank1 = data;
	}
	LEDUpdate();
     a60:	0e 94 e7 04 	call	0x9ce	; 0x9ce <LEDUpdate>
     a64:	49 c0       	rjmp	.+146    	; 0xaf8 <LEDVoltage+0xac>
	int ADCValue = AdcConvert(3);

	if(ADCValue >= 845){
		LEDChangeLed(0,255);
	}
	else if(815<=ADCValue){
     a66:	8f 32       	cpi	r24, 0x2F	; 47
     a68:	23 e0       	ldi	r18, 0x03	; 3
     a6a:	92 07       	cpc	r25, r18
     a6c:	34 f0       	brlt	.+12     	; 0xa7a <LEDVoltage+0x2e>
Blue left	246		3
blue right	222		5 */

void LEDChangeLed(uint8_t bank, uint8_t data){
	if(bank == 0){
		ledBank0 = data;
     a6e:	8f e7       	ldi	r24, 0x7F	; 127
     a70:	80 93 14 01 	sts	0x0114, r24
	}
	if(bank == 1){
		ledBank1 = data;
	}
	LEDUpdate();
     a74:	0e 94 e7 04 	call	0x9ce	; 0x9ce <LEDUpdate>
     a78:	3f c0       	rjmp	.+126    	; 0xaf8 <LEDVoltage+0xac>
		LEDChangeLed(0,255);
	}
	else if(815<=ADCValue){
		LEDChangeLed(0,127);
	}
	else if(779<=ADCValue){
     a7a:	8b 30       	cpi	r24, 0x0B	; 11
     a7c:	23 e0       	ldi	r18, 0x03	; 3
     a7e:	92 07       	cpc	r25, r18
     a80:	34 f0       	brlt	.+12     	; 0xa8e <LEDVoltage+0x42>
Blue left	246		3
blue right	222		5 */

void LEDChangeLed(uint8_t bank, uint8_t data){
	if(bank == 0){
		ledBank0 = data;
     a82:	8f e3       	ldi	r24, 0x3F	; 63
     a84:	80 93 14 01 	sts	0x0114, r24
	}
	if(bank == 1){
		ledBank1 = data;
	}
	LEDUpdate();
     a88:	0e 94 e7 04 	call	0x9ce	; 0x9ce <LEDUpdate>
     a8c:	35 c0       	rjmp	.+106    	; 0xaf8 <LEDVoltage+0xac>
		LEDChangeLed(0,127);
	}
	else if(779<=ADCValue){
		LEDChangeLed(0,63);
	}
	else if(745<=ADCValue){
     a8e:	89 3e       	cpi	r24, 0xE9	; 233
     a90:	22 e0       	ldi	r18, 0x02	; 2
     a92:	92 07       	cpc	r25, r18
     a94:	34 f0       	brlt	.+12     	; 0xaa2 <LEDVoltage+0x56>
Blue left	246		3
blue right	222		5 */

void LEDChangeLed(uint8_t bank, uint8_t data){
	if(bank == 0){
		ledBank0 = data;
     a96:	8f e1       	ldi	r24, 0x1F	; 31
     a98:	80 93 14 01 	sts	0x0114, r24
	}
	if(bank == 1){
		ledBank1 = data;
	}
	LEDUpdate();
     a9c:	0e 94 e7 04 	call	0x9ce	; 0x9ce <LEDUpdate>
     aa0:	2b c0       	rjmp	.+86     	; 0xaf8 <LEDVoltage+0xac>
		LEDChangeLed(0,63);
	}
	else if(745<=ADCValue){
		LEDChangeLed(0,31);
	}
	else if(710<=ADCValue){
     aa2:	86 3c       	cpi	r24, 0xC6	; 198
     aa4:	22 e0       	ldi	r18, 0x02	; 2
     aa6:	92 07       	cpc	r25, r18
     aa8:	34 f0       	brlt	.+12     	; 0xab6 <LEDVoltage+0x6a>
Blue left	246		3
blue right	222		5 */

void LEDChangeLed(uint8_t bank, uint8_t data){
	if(bank == 0){
		ledBank0 = data;
     aaa:	8f e0       	ldi	r24, 0x0F	; 15
     aac:	80 93 14 01 	sts	0x0114, r24
	}
	if(bank == 1){
		ledBank1 = data;
	}
	LEDUpdate();
     ab0:	0e 94 e7 04 	call	0x9ce	; 0x9ce <LEDUpdate>
     ab4:	21 c0       	rjmp	.+66     	; 0xaf8 <LEDVoltage+0xac>
		LEDChangeLed(0,31);
	}
	else if(710<=ADCValue){
		LEDChangeLed(0,15);
	}
	else if(680<=ADCValue){
     ab6:	88 3a       	cpi	r24, 0xA8	; 168
     ab8:	22 e0       	ldi	r18, 0x02	; 2
     aba:	92 07       	cpc	r25, r18
     abc:	34 f0       	brlt	.+12     	; 0xaca <LEDVoltage+0x7e>
Blue left	246		3
blue right	222		5 */

void LEDChangeLed(uint8_t bank, uint8_t data){
	if(bank == 0){
		ledBank0 = data;
     abe:	87 e0       	ldi	r24, 0x07	; 7
     ac0:	80 93 14 01 	sts	0x0114, r24
	}
	if(bank == 1){
		ledBank1 = data;
	}
	LEDUpdate();
     ac4:	0e 94 e7 04 	call	0x9ce	; 0x9ce <LEDUpdate>
     ac8:	17 c0       	rjmp	.+46     	; 0xaf8 <LEDVoltage+0xac>
		LEDChangeLed(0,15);
	}
	else if(680<=ADCValue){
		LEDChangeLed(0,7);
	}
	else if(644<=ADCValue){
     aca:	84 38       	cpi	r24, 0x84	; 132
     acc:	22 e0       	ldi	r18, 0x02	; 2
     ace:	92 07       	cpc	r25, r18
     ad0:	34 f0       	brlt	.+12     	; 0xade <LEDVoltage+0x92>
Blue left	246		3
blue right	222		5 */

void LEDChangeLed(uint8_t bank, uint8_t data){
	if(bank == 0){
		ledBank0 = data;
     ad2:	83 e0       	ldi	r24, 0x03	; 3
     ad4:	80 93 14 01 	sts	0x0114, r24
	}
	if(bank == 1){
		ledBank1 = data;
	}
	LEDUpdate();
     ad8:	0e 94 e7 04 	call	0x9ce	; 0x9ce <LEDUpdate>
     adc:	0d c0       	rjmp	.+26     	; 0xaf8 <LEDVoltage+0xac>
		LEDChangeLed(0,7);
	}
	else if(644<=ADCValue){
		LEDChangeLed(0,3);
	}
	else if(607<=ADCValue){
     ade:	8f 35       	cpi	r24, 0x5F	; 95
     ae0:	92 40       	sbci	r25, 0x02	; 2
     ae2:	34 f0       	brlt	.+12     	; 0xaf0 <LEDVoltage+0xa4>
Blue left	246		3
blue right	222		5 */

void LEDChangeLed(uint8_t bank, uint8_t data){
	if(bank == 0){
		ledBank0 = data;
     ae4:	81 e0       	ldi	r24, 0x01	; 1
     ae6:	80 93 14 01 	sts	0x0114, r24
	}
	if(bank == 1){
		ledBank1 = data;
	}
	LEDUpdate();
     aea:	0e 94 e7 04 	call	0x9ce	; 0x9ce <LEDUpdate>
     aee:	04 c0       	rjmp	.+8      	; 0xaf8 <LEDVoltage+0xac>
Blue left	246		3
blue right	222		5 */

void LEDChangeLed(uint8_t bank, uint8_t data){
	if(bank == 0){
		ledBank0 = data;
     af0:	10 92 14 01 	sts	0x0114, r1
	}
	if(bank == 1){
		ledBank1 = data;
	}
	LEDUpdate();
     af4:	0e 94 e7 04 	call	0x9ce	; 0x9ce <LEDUpdate>
		LEDChangeLed(0,1);
	}
	else{
		LEDChangeLed(0,0);
	}
	LEDUpdate();
     af8:	0e 94 e7 04 	call	0x9ce	; 0x9ce <LEDUpdate>
     afc:	08 95       	ret

00000afe <rainBowOn>:
// Rainbow effect, fades from red to green to blue and back to red and loop
// Uses the Timer/counter2, 4 bit PWM. Runs until rainBowOff().
// Uses the changeColor() and calcPWM() functions.
void rainBowOn(){
	// Enable Compare Match interrupt.
	TIMSK |= 128;
     afe:	89 b7       	in	r24, 0x39	; 57
     b00:	80 68       	ori	r24, 0x80	; 128
     b02:	89 bf       	out	0x39, r24	; 57
     b04:	08 95       	ret

00000b06 <rainBowOff>:
}

void rainBowOff(){
	TIMSK &= ~128;
     b06:	89 b7       	in	r24, 0x39	; 57
     b08:	8f 77       	andi	r24, 0x7F	; 127
     b0a:	89 bf       	out	0x39, r24	; 57
	allOff();
     b0c:	0e 94 20 05 	call	0xa40	; 0xa40 <allOff>
     b10:	08 95       	ret

00000b12 <changeColor>:
	static volatile uint8_t red = 0;
	static volatile uint8_t green = 0;
	static volatile uint8_t blue = 0;
	static volatile uint8_t color = 0;

	switch(color){
     b12:	e0 91 0b 01 	lds	r30, 0x010B
     b16:	8e 2f       	mov	r24, r30
     b18:	90 e0       	ldi	r25, 0x00	; 0
     b1a:	87 30       	cpi	r24, 0x07	; 7
     b1c:	91 05       	cpc	r25, r1
     b1e:	08 f0       	brcs	.+2      	; 0xb22 <changeColor+0x10>
     b20:	65 c0       	rjmp	.+202    	; 0xbec <changeColor+0xda>
     b22:	fc 01       	movw	r30, r24
     b24:	e6 5d       	subi	r30, 0xD6	; 214
     b26:	ff 4f       	sbci	r31, 0xFF	; 255
     b28:	0c 94 a3 0d 	jmp	0x1b46	; 0x1b46 <__tablejump2__>

		// First step, add Red, only once.
		case 0:
		if(red != 15){
     b2c:	80 91 0a 01 	lds	r24, 0x010A
     b30:	8f 30       	cpi	r24, 0x0F	; 15
     b32:	31 f0       	breq	.+12     	; 0xb40 <changeColor+0x2e>
			red++;
     b34:	80 91 0a 01 	lds	r24, 0x010A
     b38:	8f 5f       	subi	r24, 0xFF	; 255
     b3a:	80 93 0a 01 	sts	0x010A, r24
			break;
     b3e:	56 c0       	rjmp	.+172    	; 0xbec <changeColor+0xda>
		}else{
			color = 1;	
     b40:	81 e0       	ldi	r24, 0x01	; 1
     b42:	80 93 0b 01 	sts	0x010B, r24
		}
			
		// Add Green
		case 1:
		if(green != 15){
     b46:	80 91 09 01 	lds	r24, 0x0109
     b4a:	8f 30       	cpi	r24, 0x0F	; 15
     b4c:	31 f0       	breq	.+12     	; 0xb5a <changeColor+0x48>
			green++;
     b4e:	80 91 09 01 	lds	r24, 0x0109
     b52:	8f 5f       	subi	r24, 0xFF	; 255
     b54:	80 93 09 01 	sts	0x0109, r24
			break;
     b58:	49 c0       	rjmp	.+146    	; 0xbec <changeColor+0xda>
		}else{
			color = 2;
     b5a:	82 e0       	ldi	r24, 0x02	; 2
     b5c:	80 93 0b 01 	sts	0x010B, r24
			break;
     b60:	45 c0       	rjmp	.+138    	; 0xbec <changeColor+0xda>
		}
		
		// Remove Red
		case 2:
		if(red != 0){
     b62:	80 91 0a 01 	lds	r24, 0x010A
     b66:	88 23       	and	r24, r24
     b68:	31 f0       	breq	.+12     	; 0xb76 <changeColor+0x64>
			red--;
     b6a:	80 91 0a 01 	lds	r24, 0x010A
     b6e:	81 50       	subi	r24, 0x01	; 1
     b70:	80 93 0a 01 	sts	0x010A, r24
			break;
     b74:	3b c0       	rjmp	.+118    	; 0xbec <changeColor+0xda>
		}else{
			color = 3;
     b76:	83 e0       	ldi	r24, 0x03	; 3
     b78:	80 93 0b 01 	sts	0x010B, r24
			break;
     b7c:	37 c0       	rjmp	.+110    	; 0xbec <changeColor+0xda>
		}

		// Add blue
		case 3:
		if(blue != 15){
     b7e:	80 91 08 01 	lds	r24, 0x0108
     b82:	8f 30       	cpi	r24, 0x0F	; 15
     b84:	31 f0       	breq	.+12     	; 0xb92 <changeColor+0x80>
			blue++;
     b86:	80 91 08 01 	lds	r24, 0x0108
     b8a:	8f 5f       	subi	r24, 0xFF	; 255
     b8c:	80 93 08 01 	sts	0x0108, r24
			break;
     b90:	2d c0       	rjmp	.+90     	; 0xbec <changeColor+0xda>
		}else{
			color = 4;
     b92:	84 e0       	ldi	r24, 0x04	; 4
     b94:	80 93 0b 01 	sts	0x010B, r24
			break;
     b98:	29 c0       	rjmp	.+82     	; 0xbec <changeColor+0xda>
		}

		// Remove Green
		case 4:
		if(green != 0){
     b9a:	80 91 09 01 	lds	r24, 0x0109
     b9e:	88 23       	and	r24, r24
     ba0:	31 f0       	breq	.+12     	; 0xbae <changeColor+0x9c>
			green--;
     ba2:	80 91 09 01 	lds	r24, 0x0109
     ba6:	81 50       	subi	r24, 0x01	; 1
     ba8:	80 93 09 01 	sts	0x0109, r24
			break;
     bac:	1f c0       	rjmp	.+62     	; 0xbec <changeColor+0xda>
		}else{
			color = 5;
     bae:	85 e0       	ldi	r24, 0x05	; 5
     bb0:	80 93 0b 01 	sts	0x010B, r24
			break;
     bb4:	1b c0       	rjmp	.+54     	; 0xbec <changeColor+0xda>
		}
		
		// Add Red
		case 5:
		if(red != 15){
     bb6:	80 91 0a 01 	lds	r24, 0x010A
     bba:	8f 30       	cpi	r24, 0x0F	; 15
     bbc:	31 f0       	breq	.+12     	; 0xbca <changeColor+0xb8>
			red++;
     bbe:	80 91 0a 01 	lds	r24, 0x010A
     bc2:	8f 5f       	subi	r24, 0xFF	; 255
     bc4:	80 93 0a 01 	sts	0x010A, r24
			break;
     bc8:	11 c0       	rjmp	.+34     	; 0xbec <changeColor+0xda>
		}else{
			color = 6;
     bca:	86 e0       	ldi	r24, 0x06	; 6
     bcc:	80 93 0b 01 	sts	0x010B, r24
			break;
     bd0:	0d c0       	rjmp	.+26     	; 0xbec <changeColor+0xda>
		}
		
		// Remove blue
		case 6:
		if(blue != 0){
     bd2:	80 91 08 01 	lds	r24, 0x0108
     bd6:	88 23       	and	r24, r24
     bd8:	31 f0       	breq	.+12     	; 0xbe6 <changeColor+0xd4>
			blue--;
     bda:	80 91 08 01 	lds	r24, 0x0108
     bde:	81 50       	subi	r24, 0x01	; 1
     be0:	80 93 08 01 	sts	0x0108, r24
			break;
     be4:	03 c0       	rjmp	.+6      	; 0xbec <changeColor+0xda>
		}else{
			color = 1;
     be6:	81 e0       	ldi	r24, 0x01	; 1
     be8:	80 93 0b 01 	sts	0x010B, r24
			break;
		}
	}

	RGB[0][0] = red;
     bec:	80 91 0a 01 	lds	r24, 0x010A
     bf0:	ee e0       	ldi	r30, 0x0E	; 14
     bf2:	f1 e0       	ldi	r31, 0x01	; 1
     bf4:	80 83       	st	Z, r24
	RGB[1][0] = red;
     bf6:	80 91 0a 01 	lds	r24, 0x010A
     bfa:	83 83       	std	Z+3, r24	; 0x03
	RGB[0][1] = green;
     bfc:	80 91 09 01 	lds	r24, 0x0109
     c00:	81 83       	std	Z+1, r24	; 0x01
	RGB[1][1] = green;
     c02:	80 91 09 01 	lds	r24, 0x0109
     c06:	84 83       	std	Z+4, r24	; 0x04
	RGB[0][2] = blue;
     c08:	80 91 08 01 	lds	r24, 0x0108
     c0c:	82 83       	std	Z+2, r24	; 0x02
	RGB[1][2] = blue;
     c0e:	80 91 08 01 	lds	r24, 0x0108
     c12:	85 83       	std	Z+5, r24	; 0x05
     c14:	08 95       	ret

00000c16 <calcPWM>:

// Set the duty cycle for the leds
void calcPWM(){

	// Red Left
	if(RGB[0][0] <= pwm){
     c16:	80 91 0d 01 	lds	r24, 0x010D
     c1a:	90 91 0e 01 	lds	r25, 0x010E
     c1e:	89 17       	cp	r24, r25
     c20:	30 f0       	brcs	.+12     	; 0xc2e <calcPWM+0x18>
		ledBank1 |= (1<<1); //off
     c22:	80 91 68 00 	lds	r24, 0x0068
     c26:	82 60       	ori	r24, 0x02	; 2
     c28:	80 93 68 00 	sts	0x0068, r24
     c2c:	05 c0       	rjmp	.+10     	; 0xc38 <calcPWM+0x22>
	}else{
		ledBank1 &= ~(1<<1); //on
     c2e:	80 91 68 00 	lds	r24, 0x0068
     c32:	8d 7f       	andi	r24, 0xFD	; 253
     c34:	80 93 68 00 	sts	0x0068, r24
	}
	
	// Green Left
	if(RGB[0][1] <= pwm){
     c38:	80 91 0d 01 	lds	r24, 0x010D
     c3c:	90 91 0f 01 	lds	r25, 0x010F
     c40:	89 17       	cp	r24, r25
     c42:	30 f0       	brcs	.+12     	; 0xc50 <calcPWM+0x3a>
		ledBank1 |= (1<<2);
     c44:	80 91 68 00 	lds	r24, 0x0068
     c48:	84 60       	ori	r24, 0x04	; 4
     c4a:	80 93 68 00 	sts	0x0068, r24
     c4e:	05 c0       	rjmp	.+10     	; 0xc5a <calcPWM+0x44>
	}else{
		ledBank1 &= ~(1<<2);
     c50:	80 91 68 00 	lds	r24, 0x0068
     c54:	8b 7f       	andi	r24, 0xFB	; 251
     c56:	80 93 68 00 	sts	0x0068, r24
	}

	// Blue Left
	if(RGB[0][2] <= pwm){
     c5a:	80 91 0d 01 	lds	r24, 0x010D
     c5e:	90 91 10 01 	lds	r25, 0x0110
     c62:	89 17       	cp	r24, r25
     c64:	30 f0       	brcs	.+12     	; 0xc72 <calcPWM+0x5c>
		ledBank1 |= (1<<3);
     c66:	80 91 68 00 	lds	r24, 0x0068
     c6a:	88 60       	ori	r24, 0x08	; 8
     c6c:	80 93 68 00 	sts	0x0068, r24
     c70:	05 c0       	rjmp	.+10     	; 0xc7c <calcPWM+0x66>
	}else{
		ledBank1 &= ~(1<<3);
     c72:	80 91 68 00 	lds	r24, 0x0068
     c76:	87 7f       	andi	r24, 0xF7	; 247
     c78:	80 93 68 00 	sts	0x0068, r24
	}
	
	// Red Right
	if(RGB[1][0] <= pwm){
     c7c:	80 91 0d 01 	lds	r24, 0x010D
     c80:	90 91 11 01 	lds	r25, 0x0111
     c84:	89 17       	cp	r24, r25
     c86:	30 f0       	brcs	.+12     	; 0xc94 <calcPWM+0x7e>
		ledBank1 |= (1<<7);
     c88:	80 91 68 00 	lds	r24, 0x0068
     c8c:	80 68       	ori	r24, 0x80	; 128
     c8e:	80 93 68 00 	sts	0x0068, r24
     c92:	05 c0       	rjmp	.+10     	; 0xc9e <calcPWM+0x88>
	}else{
		ledBank1 &= ~(1<<7);
     c94:	80 91 68 00 	lds	r24, 0x0068
     c98:	8f 77       	andi	r24, 0x7F	; 127
     c9a:	80 93 68 00 	sts	0x0068, r24
	}

	// Green Right
	if(RGB[1][1] <= pwm){
     c9e:	80 91 0d 01 	lds	r24, 0x010D
     ca2:	90 91 12 01 	lds	r25, 0x0112
     ca6:	89 17       	cp	r24, r25
     ca8:	30 f0       	brcs	.+12     	; 0xcb6 <calcPWM+0xa0>
		ledBank1 |= (1<<6);
     caa:	80 91 68 00 	lds	r24, 0x0068
     cae:	80 64       	ori	r24, 0x40	; 64
     cb0:	80 93 68 00 	sts	0x0068, r24
     cb4:	05 c0       	rjmp	.+10     	; 0xcc0 <calcPWM+0xaa>
	}else{
		ledBank1 &= ~(1<<6);
     cb6:	80 91 68 00 	lds	r24, 0x0068
     cba:	8f 7b       	andi	r24, 0xBF	; 191
     cbc:	80 93 68 00 	sts	0x0068, r24
	}

	// Blue Right
	if(RGB[1][2] <= pwm){
     cc0:	80 91 0d 01 	lds	r24, 0x010D
     cc4:	90 91 13 01 	lds	r25, 0x0113
     cc8:	89 17       	cp	r24, r25
     cca:	30 f0       	brcs	.+12     	; 0xcd8 <calcPWM+0xc2>
		ledBank1 |= (1<<5);
     ccc:	80 91 68 00 	lds	r24, 0x0068
     cd0:	80 62       	ori	r24, 0x20	; 32
     cd2:	80 93 68 00 	sts	0x0068, r24
     cd6:	08 95       	ret
	}else{
		ledBank1 &= ~(1<<5);
     cd8:	80 91 68 00 	lds	r24, 0x0068
     cdc:	8f 7d       	andi	r24, 0xDF	; 223
     cde:	80 93 68 00 	sts	0x0068, r24
     ce2:	08 95       	ret

00000ce4 <__vector_4>:

/////////////////////////////////////////////////////////////////////////
//                       Interrupt service routines                    //
/////////////////////////////////////////////////////////////////////////

ISR(TIMER2_COMP_vect){
     ce4:	1f 92       	push	r1
     ce6:	0f 92       	push	r0
     ce8:	0f b6       	in	r0, 0x3f	; 63
     cea:	0f 92       	push	r0
     cec:	11 24       	eor	r1, r1
     cee:	2f 93       	push	r18
     cf0:	3f 93       	push	r19
     cf2:	4f 93       	push	r20
     cf4:	5f 93       	push	r21
     cf6:	6f 93       	push	r22
     cf8:	7f 93       	push	r23
     cfa:	8f 93       	push	r24
     cfc:	9f 93       	push	r25
     cfe:	af 93       	push	r26
     d00:	bf 93       	push	r27
     d02:	ef 93       	push	r30
     d04:	ff 93       	push	r31

	// PWM  count 0-15
	pwm++;
     d06:	80 91 0d 01 	lds	r24, 0x010D
     d0a:	8f 5f       	subi	r24, 0xFF	; 255
     d0c:	80 93 0d 01 	sts	0x010D, r24
	if(pwm > 15){
     d10:	80 91 0d 01 	lds	r24, 0x010D
     d14:	80 31       	cpi	r24, 0x10	; 16
     d16:	10 f0       	brcs	.+4      	; 0xd1c <__vector_4+0x38>
		pwm = 0;
     d18:	10 92 0d 01 	sts	0x010D, r1
	}
	
	// Set new values for LED's
	counter++;
     d1c:	80 91 0c 01 	lds	r24, 0x010C
     d20:	8f 5f       	subi	r24, 0xFF	; 255
     d22:	80 93 0c 01 	sts	0x010C, r24
	if(counter == 100){
     d26:	80 91 0c 01 	lds	r24, 0x010C
     d2a:	84 36       	cpi	r24, 0x64	; 100
     d2c:	21 f4       	brne	.+8      	; 0xd36 <__vector_4+0x52>
		counter = 0;
     d2e:	10 92 0c 01 	sts	0x010C, r1
		changeColor();
     d32:	0e 94 89 05 	call	0xb12	; 0xb12 <changeColor>
	}	

	// Update all LED's
	calcPWM();
     d36:	0e 94 0b 06 	call	0xc16	; 0xc16 <calcPWM>
	LEDUpdate();
     d3a:	0e 94 e7 04 	call	0x9ce	; 0x9ce <LEDUpdate>
}
     d3e:	ff 91       	pop	r31
     d40:	ef 91       	pop	r30
     d42:	bf 91       	pop	r27
     d44:	af 91       	pop	r26
     d46:	9f 91       	pop	r25
     d48:	8f 91       	pop	r24
     d4a:	7f 91       	pop	r23
     d4c:	6f 91       	pop	r22
     d4e:	5f 91       	pop	r21
     d50:	4f 91       	pop	r20
     d52:	3f 91       	pop	r19
     d54:	2f 91       	pop	r18
     d56:	0f 90       	pop	r0
     d58:	0f be       	out	0x3f, r0	; 63
     d5a:	0f 90       	pop	r0
     d5c:	1f 90       	pop	r1
     d5e:	18 95       	reti

00000d60 <setStopFlag>:
/////////////////////////////////////////////////////////////////////////
//                       Public functions                              //
/////////////////////////////////////////////////////////////////////////

void setStopFlag(uint8_t flag){
	stopFlag = flag;
     d60:	80 93 19 01 	sts	0x0119, r24
     d64:	08 95       	ret

00000d66 <setThreeSixtyFlag>:
}

void setThreeSixtyFlag(uint8_t flag){
	threeSixtyFlag = flag;
     d66:	80 93 18 01 	sts	0x0118, r24
     d6a:	08 95       	ret

00000d6c <setHighSpeedFlag>:
}

void setHighSpeedFlag(uint8_t flag){
	highSpeedFlag = flag;
     d6c:	80 93 17 01 	sts	0x0117, r24
     d70:	08 95       	ret

00000d72 <setFoundLineFlag>:
}

void setFoundLineFlag(uint8_t flag){
	foundLineFlag = flag;
     d72:	80 93 16 01 	sts	0x0116, r24
     d76:	08 95       	ret

00000d78 <setLostLineFlag>:
}

void setLostLineFlag(uint8_t flag){
	lostLineFlag = flag;
     d78:	80 93 15 01 	sts	0x0115, r24
     d7c:	08 95       	ret

00000d7e <getThreeSixtyFlag>:
	return stopFlag;
}

uint8_t getThreeSixtyFlag(){
	return threeSixtyFlag;
}
     d7e:	80 91 18 01 	lds	r24, 0x0118
     d82:	08 95       	ret

00000d84 <getHighSpeedFlag>:

uint8_t getHighSpeedFlag(){
	return highSpeedFlag;
}
     d84:	80 91 17 01 	lds	r24, 0x0117
     d88:	08 95       	ret

00000d8a <getFoundLineFlag>:

uint8_t getFoundLineFlag(){
	return foundLineFlag;
}
     d8a:	80 91 16 01 	lds	r24, 0x0116
     d8e:	08 95       	ret

00000d90 <go>:
// Drive the Robot certain distance or turn left/right
// dist = 1100 aprox 360°
// dir = 0 Straight, 1 Left, 2 Right
// ref = 0-17 Speed.
// Does not compensate for overshoot, slow speed better.
void go(signed int dist, uint8_t dir, uint8_t currentSpeed){
     d90:	9f 92       	push	r9
     d92:	af 92       	push	r10
     d94:	bf 92       	push	r11
     d96:	cf 92       	push	r12
     d98:	df 92       	push	r13
     d9a:	ef 92       	push	r14
     d9c:	ff 92       	push	r15
     d9e:	0f 93       	push	r16
     da0:	1f 93       	push	r17
     da2:	cf 93       	push	r28
     da4:	df 93       	push	r29
     da6:	5c 01       	movw	r10, r24
     da8:	c4 2e       	mov	r12, r20
	// Boolean
	uint8_t finishedL = 0;
	uint8_t finishedR = 0;

	// Change direction.
	if(dir == 0){
     daa:	61 11       	cpse	r22, r1
     dac:	07 c0       	rjmp	.+14     	; 0xdbc <go+0x2c>
		setDirectionMotorL(0);
     dae:	80 e0       	ldi	r24, 0x00	; 0
     db0:	0e 94 8d 08 	call	0x111a	; 0x111a <setDirectionMotorL>
		setDirectionMotorR(0);
     db4:	80 e0       	ldi	r24, 0x00	; 0
     db6:	0e 94 99 08 	call	0x1132	; 0x1132 <setDirectionMotorR>
     dba:	11 c0       	rjmp	.+34     	; 0xdde <go+0x4e>
	}
	if(dir == 1){
     dbc:	61 30       	cpi	r22, 0x01	; 1
     dbe:	39 f4       	brne	.+14     	; 0xdce <go+0x3e>
		setDirectionMotorL(1);
     dc0:	81 e0       	ldi	r24, 0x01	; 1
     dc2:	0e 94 8d 08 	call	0x111a	; 0x111a <setDirectionMotorL>
		setDirectionMotorR(0);
     dc6:	80 e0       	ldi	r24, 0x00	; 0
     dc8:	0e 94 99 08 	call	0x1132	; 0x1132 <setDirectionMotorR>
     dcc:	08 c0       	rjmp	.+16     	; 0xdde <go+0x4e>
		
	}
	if(dir == 2){
     dce:	62 30       	cpi	r22, 0x02	; 2
     dd0:	31 f4       	brne	.+12     	; 0xdde <go+0x4e>
		setDirectionMotorL(0);
     dd2:	80 e0       	ldi	r24, 0x00	; 0
     dd4:	0e 94 8d 08 	call	0x111a	; 0x111a <setDirectionMotorL>
		setDirectionMotorR(1);
     dd8:	81 e0       	ldi	r24, 0x01	; 1
     dda:	0e 94 99 08 	call	0x1132	; 0x1132 <setDirectionMotorR>
				finishedL = 1;
				setDutyCycleMotorL(0);
			}

			if(pulseCountR >= dist){
				finishedR = 1;
     dde:	d0 e0       	ldi	r29, 0x00	; 0
     de0:	c0 e0       	ldi	r28, 0x00	; 0
     de2:	e1 2c       	mov	r14, r1
     de4:	f1 2c       	mov	r15, r1
     de6:	00 e0       	ldi	r16, 0x00	; 0
     de8:	10 e0       	ldi	r17, 0x00	; 0

			// Difference between Wheels
			error = (pulseCountL - pulseCountR)/2;

			// Calculate and set new dutyCycle.
			calcDuty(currentSpeed, error);
     dea:	d1 2c       	mov	r13, r1
			
			// Finished ?
			if(pulseCountL >= dist){
				finishedL = 1;
     dec:	99 24       	eor	r9, r9
     dee:	93 94       	inc	r9
     df0:	33 c0       	rjmp	.+102    	; 0xe58 <go+0xc8>
	}
		
	// Go the distance until finished.
	while((finishedL == 0) || (finishedR == 0)){
	
		if(getSensorUpdateFlag()){
     df2:	0e 94 71 08 	call	0x10e2	; 0x10e2 <getSensorUpdateFlag>
     df6:	88 23       	and	r24, r24
     df8:	79 f1       	breq	.+94     	; 0xe58 <go+0xc8>
			
			pulseCountR += getSensorMotorR();
     dfa:	0e 94 a8 08 	call	0x1150	; 0x1150 <getSensorMotorR>
     dfe:	e8 0e       	add	r14, r24
     e00:	f1 1c       	adc	r15, r1
			pulseCountL += getSensorMotorL();
     e02:	0e 94 a5 08 	call	0x114a	; 0x114a <getSensorMotorL>
     e06:	08 0f       	add	r16, r24
     e08:	11 1d       	adc	r17, r1

			// Difference between Wheels
			error = (pulseCountL - pulseCountR)/2;
     e0a:	c8 01       	movw	r24, r16
     e0c:	8e 19       	sub	r24, r14
     e0e:	9f 09       	sbc	r25, r15
     e10:	bc 01       	movw	r22, r24
     e12:	12 f4       	brpl	.+4      	; 0xe18 <go+0x88>
     e14:	6f 5f       	subi	r22, 0xFF	; 255
     e16:	7f 4f       	sbci	r23, 0xFF	; 255
     e18:	75 95       	asr	r23
     e1a:	67 95       	ror	r22

			// Calculate and set new dutyCycle.
			calcDuty(currentSpeed, error);
     e1c:	06 2e       	mov	r0, r22
     e1e:	00 0c       	add	r0, r0
     e20:	77 0b       	sbc	r23, r23
     e22:	88 0b       	sbc	r24, r24
     e24:	99 0b       	sbc	r25, r25
     e26:	0e 94 aa 0c 	call	0x1954	; 0x1954 <__floatsisf>
     e2a:	ab 01       	movw	r20, r22
     e2c:	bc 01       	movw	r22, r24
     e2e:	c6 01       	movw	r24, r12
     e30:	0e 94 f7 08 	call	0x11ee	; 0x11ee <calcDuty>
			
			// Finished ?
			if(pulseCountL >= dist){
     e34:	0a 15       	cp	r16, r10
     e36:	1b 05       	cpc	r17, r11
     e38:	2c f0       	brlt	.+10     	; 0xe44 <go+0xb4>
				finishedL = 1;
				setDutyCycleMotorL(0);
     e3a:	80 e0       	ldi	r24, 0x00	; 0
     e3c:	90 e0       	ldi	r25, 0x00	; 0
     e3e:	0e 94 81 08 	call	0x1102	; 0x1102 <setDutyCycleMotorL>
			// Calculate and set new dutyCycle.
			calcDuty(currentSpeed, error);
			
			// Finished ?
			if(pulseCountL >= dist){
				finishedL = 1;
     e42:	c9 2d       	mov	r28, r9
				setDutyCycleMotorL(0);
			}

			if(pulseCountR >= dist){
     e44:	ea 14       	cp	r14, r10
     e46:	fb 04       	cpc	r15, r11
     e48:	2c f0       	brlt	.+10     	; 0xe54 <go+0xc4>
				finishedR = 1;
				setDutyCycleMotorR(0);
     e4a:	80 e0       	ldi	r24, 0x00	; 0
     e4c:	90 e0       	ldi	r25, 0x00	; 0
     e4e:	0e 94 87 08 	call	0x110e	; 0x110e <setDutyCycleMotorR>
				finishedL = 1;
				setDutyCycleMotorL(0);
			}

			if(pulseCountR >= dist){
				finishedR = 1;
     e52:	d9 2d       	mov	r29, r9
				setDutyCycleMotorR(0);
			}

		clearSensorUpdateFlag();
     e54:	0e 94 74 08 	call	0x10e8	; 0x10e8 <clearSensorUpdateFlag>
		setDirectionMotorL(0);
		setDirectionMotorR(1);
	}
		
	// Go the distance until finished.
	while((finishedL == 0) || (finishedR == 0)){
     e58:	cc 23       	and	r28, r28
     e5a:	59 f2       	breq	.-106    	; 0xdf2 <go+0x62>
     e5c:	dd 23       	and	r29, r29
     e5e:	49 f2       	breq	.-110    	; 0xdf2 <go+0x62>
			}

		clearSensorUpdateFlag();
		}
	}
}
     e60:	df 91       	pop	r29
     e62:	cf 91       	pop	r28
     e64:	1f 91       	pop	r17
     e66:	0f 91       	pop	r16
     e68:	ff 90       	pop	r15
     e6a:	ef 90       	pop	r14
     e6c:	df 90       	pop	r13
     e6e:	cf 90       	pop	r12
     e70:	bf 90       	pop	r11
     e72:	af 90       	pop	r10
     e74:	9f 90       	pop	r9
     e76:	08 95       	ret

00000e78 <searchMode>:
uint8_t getFoundLineFlag(){
	return foundLineFlag;
}


void searchMode(){
     e78:	1f 93       	push	r17
     e7a:	cf 93       	push	r28
     e7c:	df 93       	push	r29
	
	uint8_t a = 0;
     e7e:	c0 e0       	ldi	r28, 0x00	; 0

			case 0:

			// Drive a little bit forward.
			go(150,0,2);
			a = 1;
     e80:	d1 e0       	ldi	r29, 0x01	; 1
			break;

			// Scan left
			case 2:
			go(200,1,2);
			a = 3;
     e82:	13 e0       	ldi	r17, 0x03	; 3
	uint8_t a = 0;
	
	while(1){
		
		// Check if robot found line again.
		if(readFloorSensors() != 0){
     e84:	0e 94 3c 03 	call	0x678	; 0x678 <readFloorSensors>
     e88:	88 23       	and	r24, r24
     e8a:	39 f0       	breq	.+14     	; 0xe9a <searchMode+0x22>
			setDirectionMotorL(0);
     e8c:	80 e0       	ldi	r24, 0x00	; 0
     e8e:	0e 94 8d 08 	call	0x111a	; 0x111a <setDirectionMotorL>
			setDirectionMotorR(0);
     e92:	80 e0       	ldi	r24, 0x00	; 0
     e94:	0e 94 99 08 	call	0x1132	; 0x1132 <setDirectionMotorR>
     e98:	28 c0       	rjmp	.+80     	; 0xeea <searchMode+0x72>
			break;
		}

		switch(a){
     e9a:	c1 30       	cpi	r28, 0x01	; 1
     e9c:	71 f0       	breq	.+28     	; 0xeba <searchMode+0x42>
     e9e:	28 f0       	brcs	.+10     	; 0xeaa <searchMode+0x32>
     ea0:	c2 30       	cpi	r28, 0x02	; 2
     ea2:	99 f0       	breq	.+38     	; 0xeca <searchMode+0x52>
     ea4:	c3 30       	cpi	r28, 0x03	; 3
     ea6:	c9 f0       	breq	.+50     	; 0xeda <searchMode+0x62>
     ea8:	ed cf       	rjmp	.-38     	; 0xe84 <searchMode+0xc>

			case 0:

			// Drive a little bit forward.
			go(150,0,2);
     eaa:	42 e0       	ldi	r20, 0x02	; 2
     eac:	60 e0       	ldi	r22, 0x00	; 0
     eae:	86 e9       	ldi	r24, 0x96	; 150
     eb0:	90 e0       	ldi	r25, 0x00	; 0
     eb2:	0e 94 c8 06 	call	0xd90	; 0xd90 <go>
			a = 1;
     eb6:	cd 2f       	mov	r28, r29
			break;
     eb8:	e5 cf       	rjmp	.-54     	; 0xe84 <searchMode+0xc>

			// Scan Right.
			case 1:
			go(100,2,2);
     eba:	42 e0       	ldi	r20, 0x02	; 2
     ebc:	62 e0       	ldi	r22, 0x02	; 2
     ebe:	84 e6       	ldi	r24, 0x64	; 100
     ec0:	90 e0       	ldi	r25, 0x00	; 0
     ec2:	0e 94 c8 06 	call	0xd90	; 0xd90 <go>
			a = 2;
     ec6:	c2 e0       	ldi	r28, 0x02	; 2
			break;
     ec8:	dd cf       	rjmp	.-70     	; 0xe84 <searchMode+0xc>

			// Scan left
			case 2:
			go(200,1,2);
     eca:	42 e0       	ldi	r20, 0x02	; 2
     ecc:	6d 2f       	mov	r22, r29
     ece:	88 ec       	ldi	r24, 0xC8	; 200
     ed0:	90 e0       	ldi	r25, 0x00	; 0
     ed2:	0e 94 c8 06 	call	0xd90	; 0xd90 <go>
			a = 3;
     ed6:	c1 2f       	mov	r28, r17
			break;
     ed8:	d5 cf       	rjmp	.-86     	; 0xe84 <searchMode+0xc>

			// Center again.
			case 3:
			go(105,2,2);
     eda:	42 e0       	ldi	r20, 0x02	; 2
     edc:	62 e0       	ldi	r22, 0x02	; 2
     ede:	89 e6       	ldi	r24, 0x69	; 105
     ee0:	90 e0       	ldi	r25, 0x00	; 0
     ee2:	0e 94 c8 06 	call	0xd90	; 0xd90 <go>
			a = 0;
     ee6:	c0 e0       	ldi	r28, 0x00	; 0
			break;
     ee8:	cd cf       	rjmp	.-102    	; 0xe84 <searchMode+0xc>

		}	
	}
}
     eea:	df 91       	pop	r29
     eec:	cf 91       	pop	r28
     eee:	1f 91       	pop	r17
     ef0:	08 95       	ret

00000ef2 <runLine>:

// Run the IHK line
void runLine(){
     ef2:	1f 93       	push	r17
     ef4:	cf 93       	push	r28
     ef6:	df 93       	push	r29

	LCDClear();
     ef8:	0e 94 eb 03 	call	0x7d6	; 0x7d6 <LCDClear>
	static const uint8_t forwardDirection = 0;
	
	// Start speed, current speed.
	uint8_t currentSpeed = lowSpeed;

	setDirectionMotorL(forwardDirection);
     efc:	80 e0       	ldi	r24, 0x00	; 0
     efe:	0e 94 8d 08 	call	0x111a	; 0x111a <setDirectionMotorL>
	setDirectionMotorR(forwardDirection);
     f02:	80 e0       	ldi	r24, 0x00	; 0
     f04:	0e 94 99 08 	call	0x1132	; 0x1132 <setDirectionMotorR>
	static const uint8_t lowSpeed = 6;
	
	static const uint8_t forwardDirection = 0;
	
	// Start speed, current speed.
	uint8_t currentSpeed = lowSpeed;
     f08:	c6 e0       	ldi	r28, 0x06	; 6
			// Increase speed and follow the line.
			if(foundLineFlag == 1){
				go(150,2,lowSpeed);
				setDirectionMotorL(forwardDirection);
				setDirectionMotorR(forwardDirection);
				currentSpeed = normalSpeed;
     f0a:	1c e0       	ldi	r17, 0x0C	; 12
				setGreen();
			}
	
			// High speed mark.
			if(highSpeedFlag == 1){
				currentSpeed = highSpeed;
     f0c:	d0 e1       	ldi	r29, 0x10	; 16

	setDirectionMotorL(forwardDirection);
	setDirectionMotorR(forwardDirection);

	// Run until end of track.
	while(stopFlag == 0){
     f0e:	57 c0       	rjmp	.+174    	; 0xfbe <runLine+0xcc>

		if(getSensorUpdateFlag()){
     f10:	0e 94 71 08 	call	0x10e2	; 0x10e2 <getSensorUpdateFlag>
     f14:	88 23       	and	r24, r24
     f16:	09 f4       	brne	.+2      	; 0xf1a <runLine+0x28>
     f18:	52 c0       	rjmp	.+164    	; 0xfbe <runLine+0xcc>
			// When a line is lost after driving straight, go in search mode
			if(lostLineFlag == 1){
     f1a:	80 91 15 01 	lds	r24, 0x0115
     f1e:	81 30       	cpi	r24, 0x01	; 1
     f20:	21 f4       	brne	.+8      	; 0xf2a <runLine+0x38>
				searchMode();
     f22:	0e 94 3c 07 	call	0xe78	; 0xe78 <searchMode>
				lostLineFlag = 0;
     f26:	10 92 15 01 	sts	0x0115, r1
			}

			// When line is found, make a Right turn
			// Increase speed and follow the line.
			if(foundLineFlag == 1){
     f2a:	80 91 16 01 	lds	r24, 0x0116
     f2e:	81 30       	cpi	r24, 0x01	; 1
     f30:	81 f4       	brne	.+32     	; 0xf52 <runLine+0x60>
				go(150,2,lowSpeed);
     f32:	46 e0       	ldi	r20, 0x06	; 6
     f34:	62 e0       	ldi	r22, 0x02	; 2
     f36:	86 e9       	ldi	r24, 0x96	; 150
     f38:	90 e0       	ldi	r25, 0x00	; 0
     f3a:	0e 94 c8 06 	call	0xd90	; 0xd90 <go>
				setDirectionMotorL(forwardDirection);
     f3e:	80 e0       	ldi	r24, 0x00	; 0
     f40:	0e 94 8d 08 	call	0x111a	; 0x111a <setDirectionMotorL>
				setDirectionMotorR(forwardDirection);
     f44:	80 e0       	ldi	r24, 0x00	; 0
     f46:	0e 94 99 08 	call	0x1132	; 0x1132 <setDirectionMotorR>
				currentSpeed = normalSpeed;
				foundLineFlag = 2;
     f4a:	82 e0       	ldi	r24, 0x02	; 2
     f4c:	80 93 16 01 	sts	0x0116, r24
			// Increase speed and follow the line.
			if(foundLineFlag == 1){
				go(150,2,lowSpeed);
				setDirectionMotorL(forwardDirection);
				setDirectionMotorR(forwardDirection);
				currentSpeed = normalSpeed;
     f50:	c1 2f       	mov	r28, r17
				foundLineFlag = 2;
			}

			// 360° mark
			if(threeSixtyFlag == 1){
     f52:	80 91 18 01 	lds	r24, 0x0118
     f56:	81 30       	cpi	r24, 0x01	; 1
     f58:	99 f4       	brne	.+38     	; 0xf80 <runLine+0x8e>
				go(1180,1,lowSpeed);
     f5a:	46 e0       	ldi	r20, 0x06	; 6
     f5c:	61 e0       	ldi	r22, 0x01	; 1
     f5e:	8c e9       	ldi	r24, 0x9C	; 156
     f60:	94 e0       	ldi	r25, 0x04	; 4
     f62:	0e 94 c8 06 	call	0xd90	; 0xd90 <go>
				setDirectionMotorL(forwardDirection);
     f66:	80 e0       	ldi	r24, 0x00	; 0
     f68:	0e 94 8d 08 	call	0x111a	; 0x111a <setDirectionMotorL>
				setDirectionMotorR(forwardDirection);
     f6c:	80 e0       	ldi	r24, 0x00	; 0
     f6e:	0e 94 99 08 	call	0x1132	; 0x1132 <setDirectionMotorR>
				LEDLcdBackLightOn();
     f72:	0e 94 06 05 	call	0xa0c	; 0xa0c <LEDLcdBackLightOn>
				threeSixtyFlag = 2;
     f76:	82 e0       	ldi	r24, 0x02	; 2
     f78:	80 93 18 01 	sts	0x0118, r24
				setGreen();
     f7c:	0e 94 14 05 	call	0xa28	; 0xa28 <setGreen>
			}
	
			// High speed mark.
			if(highSpeedFlag == 1){
     f80:	80 91 17 01 	lds	r24, 0x0117
     f84:	81 30       	cpi	r24, 0x01	; 1
     f86:	41 f4       	brne	.+16     	; 0xf98 <runLine+0xa6>
				currentSpeed = highSpeed;
				highSpeedFlag = 2;
     f88:	82 e0       	ldi	r24, 0x02	; 2
     f8a:	80 93 17 01 	sts	0x0117, r24
				allOff();
     f8e:	0e 94 20 05 	call	0xa40	; 0xa40 <allOff>
				setBlue();
     f92:	0e 94 1a 05 	call	0xa34	; 0xa34 <setBlue>
				setGreen();
			}
	
			// High speed mark.
			if(highSpeedFlag == 1){
				currentSpeed = highSpeed;
     f96:	cd 2f       	mov	r28, r29
				allOff();
				setBlue();
			}

			// Calculate and set new duty cycle.
			calcDuty(currentSpeed, calcFloorError());
     f98:	0e 94 49 03 	call	0x692	; 0x692 <calcFloorError>
     f9c:	68 2f       	mov	r22, r24
     f9e:	88 0f       	add	r24, r24
     fa0:	77 0b       	sbc	r23, r23
     fa2:	88 0b       	sbc	r24, r24
     fa4:	99 0b       	sbc	r25, r25
     fa6:	0e 94 aa 0c 	call	0x1954	; 0x1954 <__floatsisf>
     faa:	ab 01       	movw	r20, r22
     fac:	bc 01       	movw	r22, r24
     fae:	8c 2f       	mov	r24, r28
     fb0:	90 e0       	ldi	r25, 0x00	; 0
     fb2:	0e 94 f7 08 	call	0x11ee	; 0x11ee <calcDuty>

			// Update voltage LED's
			LEDVoltage();
     fb6:	0e 94 26 05 	call	0xa4c	; 0xa4c <LEDVoltage>

			clearSensorUpdateFlag();
     fba:	0e 94 74 08 	call	0x10e8	; 0x10e8 <clearSensorUpdateFlag>

	setDirectionMotorL(forwardDirection);
	setDirectionMotorR(forwardDirection);

	// Run until end of track.
	while(stopFlag == 0){
     fbe:	80 91 19 01 	lds	r24, 0x0119
     fc2:	88 23       	and	r24, r24
     fc4:	09 f4       	brne	.+2      	; 0xfc8 <runLine+0xd6>
     fc6:	a4 cf       	rjmp	.-184    	; 0xf10 <runLine+0x1e>
			clearSensorUpdateFlag();
		}
	}

	// Stop the robot at end mark.
	setDutyCycleMotorL(0);
     fc8:	80 e0       	ldi	r24, 0x00	; 0
     fca:	90 e0       	ldi	r25, 0x00	; 0
     fcc:	0e 94 81 08 	call	0x1102	; 0x1102 <setDutyCycleMotorL>
	setDutyCycleMotorR(0);
     fd0:	80 e0       	ldi	r24, 0x00	; 0
     fd2:	90 e0       	ldi	r25, 0x00	; 0
     fd4:	0e 94 87 08 	call	0x110e	; 0x110e <setDutyCycleMotorR>

	allOff();
     fd8:	0e 94 20 05 	call	0xa40	; 0xa40 <allOff>
	setRed();
     fdc:	0e 94 0e 05 	call	0xa1c	; 0xa1c <setRed>
}
     fe0:	df 91       	pop	r29
     fe2:	cf 91       	pop	r28
     fe4:	1f 91       	pop	r17
     fe6:	08 95       	ret

00000fe8 <main>:
Added rainbow effect to the LED controller, uses 4 bit PWM.
*/

int main(void) {

	initMotorControl();
     fe8:	0e 94 41 08 	call	0x1082	; 0x1082 <initMotorControl>
	initFloorSensor();
     fec:	0e 94 b1 02 	call	0x562	; 0x562 <initFloorSensor>
	LCDInit(16);
     ff0:	80 e1       	ldi	r24, 0x10	; 16
     ff2:	0e 94 51 04 	call	0x8a2	; 0x8a2 <LCDInit>
	LEDInit();
     ff6:	0e 94 f2 04 	call	0x9e4	; 0x9e4 <LEDInit>
	AdcInit();
     ffa:	0e 94 5a 00 	call	0xb4	; 0xb4 <AdcInit>
	USARTInit(31);
     ffe:	8f e1       	ldi	r24, 0x1F	; 31
    1000:	90 e0       	ldi	r25, 0x00	; 0
    1002:	0e 94 5d 00 	call	0xba	; 0xba <USARTInit>

	LEDEnable();
    1006:	0e 94 04 05 	call	0xa08	; 0xa08 <LEDEnable>
	
	enableHBridge();
    100a:	0e 94 6f 08 	call	0x10de	; 0x10de <enableHBridge>

	SetInterrupt();
    100e:	78 94       	sei
		buttonMenu();

		if(getRunLineFlag())
		{
			runLine();
			setRunLineFlag(false);
    1010:	d8 ee       	ldi	r29, 0xE8	; 232
    1012:	c3 e0       	ldi	r28, 0x03	; 3
	
	while(1){
		
		//test();
		
		buttonMenu();
    1014:	0e 94 60 02 	call	0x4c0	; 0x4c0 <buttonMenu>

		if(getRunLineFlag())
    1018:	0e 94 75 00 	call	0xea	; 0xea <getRunLineFlag>
    101c:	88 23       	and	r24, r24
    101e:	91 f0       	breq	.+36     	; 0x1044 <main+0x5c>
		{
			runLine();
    1020:	0e 94 79 07 	call	0xef2	; 0xef2 <runLine>
			setRunLineFlag(false);
    1024:	80 e0       	ldi	r24, 0x00	; 0
    1026:	0e 94 7b 00 	call	0xf6	; 0xf6 <setRunLineFlag>
    102a:	8d 2f       	mov	r24, r29
    102c:	9c 2f       	mov	r25, r28
	#else
		//round up by default
		__ticks_dc = (uint32_t)(ceil(fabs(__tmp)));
	#endif

	__builtin_avr_delay_cycles(__ticks_dc);
    102e:	eb e4       	ldi	r30, 0x4B	; 75
    1030:	fd e1       	ldi	r31, 0x1D	; 29
    1032:	31 97       	sbiw	r30, 0x01	; 1
    1034:	f1 f7       	brne	.-4      	; 0x1032 <main+0x4a>
    1036:	00 c0       	rjmp	.+0      	; 0x1038 <main+0x50>
    1038:	00 00       	nop
    103a:	01 97       	sbiw	r24, 0x01	; 1

			for( int i = 0; i < 1000; i++)
    103c:	c1 f7       	brne	.-16     	; 0x102e <main+0x46>
			{
				_delay_ms(3);
			}
			
			setRunWallFlag(true);
    103e:	81 e0       	ldi	r24, 0x01	; 1
    1040:	0e 94 7e 00 	call	0xfc	; 0xfc <setRunWallFlag>
		}

		if(getRunWallFlag())
    1044:	0e 94 78 00 	call	0xf0	; 0xf0 <getRunWallFlag>
    1048:	88 23       	and	r24, r24
    104a:	21 f3       	breq	.-56     	; 0x1014 <main+0x2c>
		{
			rainBowOn();
    104c:	0e 94 7f 05 	call	0xafe	; 0xafe <rainBowOn>
			runWall();
    1050:	0e 94 d3 0b 	call	0x17a6	; 0x17a6 <runWall>
			setRunWallFlag(false);
    1054:	80 e0       	ldi	r24, 0x00	; 0
    1056:	0e 94 7e 00 	call	0xfc	; 0xfc <setRunWallFlag>
			rainBowOff();
    105a:	0e 94 83 05 	call	0xb06	; 0xb06 <rainBowOff>
    105e:	da cf       	rjmp	.-76     	; 0x1014 <main+0x2c>

00001060 <clearIntSumError>:
/////////////////////////////////////////////////////////////////////////

// Clear the interger sum Error
void clearIntSumError(){

	intL = 0;
    1060:	10 92 2b 01 	sts	0x012B, r1
    1064:	10 92 2c 01 	sts	0x012C, r1
    1068:	10 92 2d 01 	sts	0x012D, r1
    106c:	10 92 2e 01 	sts	0x012E, r1
	intR = 0;	
    1070:	10 92 27 01 	sts	0x0127, r1
    1074:	10 92 28 01 	sts	0x0128, r1
    1078:	10 92 29 01 	sts	0x0129, r1
    107c:	10 92 2a 01 	sts	0x012A, r1
    1080:	08 95       	ret

00001082 <initMotorControl>:

// Initialize the motor control.
void initMotorControl(void){

	// Set the directions.
	setOutput(DDRD, BRIDGE_A1);
    1082:	8d 9a       	sbi	0x11, 5	; 17
	setOutput(DDRD, BRIDGE_A2);
    1084:	8f 9a       	sbi	0x11, 7	; 17
	setOutput(DDRD, BRIDGE_A3);
    1086:	8c 9a       	sbi	0x11, 4	; 17
	setOutput(DDRD, BRIDGE_A4);
    1088:	8e 9a       	sbi	0x11, 6	; 17
	setOutput(DDRD, BRIDGE_EN);
    108a:	88 9a       	sbi	0x11, 0	; 17
	setInput(DDRD, MOTOR_L_A);
    108c:	8b 98       	cbi	0x11, 3	; 17
	setInput(DDRD, MOTOR_R_A);
    108e:	8a 98       	cbi	0x11, 2	; 17


	// Set the initial output values for outputs.
	setLow(PORTD, BRIDGE_A1);
    1090:	95 98       	cbi	0x12, 5	; 18
	setHigh(PORTD, BRIDGE_A2);
    1092:	97 9a       	sbi	0x12, 7	; 18
	setLow(PORTD, BRIDGE_A3);
    1094:	94 98       	cbi	0x12, 4	; 18
	setHigh(PORTD, BRIDGE_A4);
    1096:	96 9a       	sbi	0x12, 6	; 18
	setLow(PORTC, BRIDGE_EN);
    1098:	a8 98       	cbi	0x15, 0	; 21


	// Initilize Timer/counter 1
	TCCR1A = 0b10100010;
    109a:	82 ea       	ldi	r24, 0xA2	; 162
    109c:	8f bd       	out	0x2f, r24	; 47
	TCCR1B = 0b00011001;
    109e:	89 e1       	ldi	r24, 0x19	; 25
    10a0:	8e bd       	out	0x2e, r24	; 46
	// Waveform generation mode (WGM) set to 14 (fast PWM TOP is ICR1)
	// Input capture noise canceler (ICNC1) disabled, Input capture Edge select (ICES1) set to falling edge.
	// NOTE: when ICR1 is set to TOP the input capture function is disabled thus ICES1 and ICNC1 are cleared.
	// no prescaler is used clk/1

	TCNT1 = 0; 		//reset counter1
    10a2:	1d bc       	out	0x2d, r1	; 45
    10a4:	1c bc       	out	0x2c, r1	; 44
	OCR1A = 250; 	//speed of Left Motor 0-250
    10a6:	8a ef       	ldi	r24, 0xFA	; 250
    10a8:	90 e0       	ldi	r25, 0x00	; 0
    10aa:	9b bd       	out	0x2b, r25	; 43
    10ac:	8a bd       	out	0x2a, r24	; 42
	OCR1B = 250; 	//speed of Right Motor 0-250
    10ae:	99 bd       	out	0x29, r25	; 41
    10b0:	88 bd       	out	0x28, r24	; 40
	ICR1 = 250; 	// Top value for TCNT1 defines the freq of the PMW (10MHz / 250 = 40 kHz)
    10b2:	97 bd       	out	0x27, r25	; 39
    10b4:	86 bd       	out	0x26, r24	; 38


	// Initilize Timer/Counter 0		
	TCCR0 = 0b00001101;
    10b6:	8d e0       	ldi	r24, 0x0D	; 13
    10b8:	83 bf       	out	0x33, r24	; 51
	// WGM CTC, OCR0 is TOP
	// OC0 disconnected.
	// clk/1024 prescaler = 9,765.625 Hz
	
	TCNT0 = 0;	// reset counter0
    10ba:	12 be       	out	0x32, r1	; 50
	OCR0 = 98;	// Counter divisor 9,765.625/98 = 99,64923469 Hz ~ 10 ms period
    10bc:	82 e6       	ldi	r24, 0x62	; 98
    10be:	8c bf       	out	0x3c, r24	; 60

	// Enabled Timer/Counter0 Compare Match interrupt.
	TIMSK |= 2;
    10c0:	89 b7       	in	r24, 0x39	; 57
    10c2:	82 60       	ori	r24, 0x02	; 2
    10c4:	89 bf       	out	0x39, r24	; 57


	// External interrupts... 
	//General Interrupt Control Register
	GICR |= 0b11000000;
    10c6:	8b b7       	in	r24, 0x3b	; 59
    10c8:	80 6c       	ori	r24, 0xC0	; 192
    10ca:	8b bf       	out	0x3b, r24	; 59
	// bit 6 = 1 = Enable INT1
	// bit 7 = 1 = Enable INT0

	//MCU Control Register
	MCUCR |= 0b00001111;
    10cc:	85 b7       	in	r24, 0x35	; 53
    10ce:	8f 60       	ori	r24, 0x0F	; 15
    10d0:	85 bf       	out	0x35, r24	; 53
	// bit1, bit0 = 11 = positive logical change on INT0 generates an interupt request.
	// bit3, bit2 = 11 = positive logical change on INT1 generates an interupt request

	//MSU Control and Status Register
	MCUCSR |= 0b00000000;
    10d2:	84 b7       	in	r24, 0x34	; 52
    10d4:	84 bf       	out	0x34, r24	; 52

	// General Interrupt Flag Register
	GIFR   |= 0b11000000;
    10d6:	8a b7       	in	r24, 0x3a	; 58
    10d8:	80 6c       	ori	r24, 0xC0	; 192
    10da:	8a bf       	out	0x3a, r24	; 58
    10dc:	08 95       	ret

000010de <enableHBridge>:
}

// Enable outputs on the H-bridge
void enableHBridge(void){
	setHigh(PORTC, BRIDGE_EN);
    10de:	a8 9a       	sbi	0x15, 0	; 21
    10e0:	08 95       	ret

000010e2 <getSensorUpdateFlag>:
	setLow(PORTC, BRIDGE_EN);
}

// Get sensor update Flag
uint8_t getSensorUpdateFlag(){
	return sensorUpdateFlag;
    10e2:	80 91 1a 01 	lds	r24, 0x011A

}
    10e6:	08 95       	ret

000010e8 <clearSensorUpdateFlag>:

// Clear Sensor update Flag
void clearSensorUpdateFlag(){
	sensorUpdateFlag = 0;
    10e8:	10 92 1a 01 	sts	0x011A, r1
    10ec:	08 95       	ret

000010ee <limitDutyCycle>:
	OCR1B = limitDutyCycle(duty);	
}


// Limits for the DutyCycle
uint8_t limitDutyCycle(signed int duty){
    10ee:	8b 3f       	cpi	r24, 0xFB	; 251
    10f0:	91 05       	cpc	r25, r1
    10f2:	14 f0       	brlt	.+4      	; 0x10f8 <limitDutyCycle+0xa>
    10f4:	8a ef       	ldi	r24, 0xFA	; 250
    10f6:	90 e0       	ldi	r25, 0x00	; 0
    10f8:	99 23       	and	r25, r25
    10fa:	14 f4       	brge	.+4      	; 0x1100 <limitDutyCycle+0x12>
    10fc:	80 e0       	ldi	r24, 0x00	; 0
    10fe:	90 e0       	ldi	r25, 0x00	; 0
	}
	if(duty<0){
		duty = 0;
	}
	return duty;
}
    1100:	08 95       	ret

00001102 <setDutyCycleMotorL>:
}

// Set duty cycle for Left Motor 0-100%
void setDutyCycleMotorL(signed int duty){
	
	OCR1A = limitDutyCycle(duty);
    1102:	0e 94 77 08 	call	0x10ee	; 0x10ee <limitDutyCycle>
    1106:	90 e0       	ldi	r25, 0x00	; 0
    1108:	9b bd       	out	0x2b, r25	; 43
    110a:	8a bd       	out	0x2a, r24	; 42
    110c:	08 95       	ret

0000110e <setDutyCycleMotorR>:
}

// Set duty cycle for Right Motor 0-100%
void setDutyCycleMotorR(signed int duty){
	
	OCR1B = limitDutyCycle(duty);	
    110e:	0e 94 77 08 	call	0x10ee	; 0x10ee <limitDutyCycle>
    1112:	90 e0       	ldi	r25, 0x00	; 0
    1114:	99 bd       	out	0x29, r25	; 41
    1116:	88 bd       	out	0x28, r24	; 40
    1118:	08 95       	ret

0000111a <setDirectionMotorL>:
}

// Set direction for Left Motor. 0 forward, 1 backward
void setDirectionMotorL(uint8_t dir){

	if(dir)
    111a:	88 23       	and	r24, r24
    111c:	29 f0       	breq	.+10     	; 0x1128 <setDirectionMotorL+0xe>
	{
		setLow(PORTD, BRIDGE_A2);
    111e:	97 98       	cbi	0x12, 7	; 18
		TCCR1A &= ~(1 << 6);
    1120:	8f b5       	in	r24, 0x2f	; 47
    1122:	8f 7b       	andi	r24, 0xBF	; 191
    1124:	8f bd       	out	0x2f, r24	; 47
    1126:	08 95       	ret
	}
	else
	{
		setHigh(PORTD, BRIDGE_A2);	
    1128:	97 9a       	sbi	0x12, 7	; 18
		TCCR1A |= 1 << 6;
    112a:	8f b5       	in	r24, 0x2f	; 47
    112c:	80 64       	ori	r24, 0x40	; 64
    112e:	8f bd       	out	0x2f, r24	; 47
    1130:	08 95       	ret

00001132 <setDirectionMotorR>:
}

// Set direction for Right Motor 0 forward, 1 backward
void setDirectionMotorR(uint8_t dir){

	if(dir){
    1132:	88 23       	and	r24, r24
    1134:	29 f0       	breq	.+10     	; 0x1140 <setDirectionMotorR+0xe>
		setLow(PORTD, BRIDGE_A4);
    1136:	96 98       	cbi	0x12, 6	; 18
		TCCR1A &= ~(1 << 4); 
    1138:	8f b5       	in	r24, 0x2f	; 47
    113a:	8f 7e       	andi	r24, 0xEF	; 239
    113c:	8f bd       	out	0x2f, r24	; 47
    113e:	08 95       	ret
	}else{
		setHigh(PORTD, BRIDGE_A4);
    1140:	96 9a       	sbi	0x12, 6	; 18
		TCCR1A |= 1 << 4; 
    1142:	8f b5       	in	r24, 0x2f	; 47
    1144:	80 61       	ori	r24, 0x10	; 16
    1146:	8f bd       	out	0x2f, r24	; 47
    1148:	08 95       	ret

0000114a <getSensorMotorL>:
	}
}

// Get the count value from left Motor
uint8_t getSensorMotorL(){
	return sensorMotorL;
    114a:	80 91 1b 01 	lds	r24, 0x011B
}
    114e:	08 95       	ret

00001150 <getSensorMotorR>:

// Get the count value from Right Motor
uint8_t getSensorMotorR(){
	return sensorMotorR;
    1150:	80 91 1c 01 	lds	r24, 0x011C
}
    1154:	08 95       	ret

00001156 <setKp>:
	showMotorInfo();

}

void setKp(float value){
	Kp = value;
    1156:	60 93 71 00 	sts	0x0071, r22
    115a:	70 93 72 00 	sts	0x0072, r23
    115e:	80 93 73 00 	sts	0x0073, r24
    1162:	90 93 74 00 	sts	0x0074, r25
    1166:	08 95       	ret

00001168 <setKi>:
}

void setKi(float value){
	Ki = value;
    1168:	60 93 6d 00 	sts	0x006D, r22
    116c:	70 93 6e 00 	sts	0x006E, r23
    1170:	80 93 6f 00 	sts	0x006F, r24
    1174:	90 93 70 00 	sts	0x0070, r25
    1178:	08 95       	ret

0000117a <showMotorInfo>:
}

// Write on display duty cycle for Both Motors, 1st line on LCD
void showMotorInfo(){
    117a:	0f 93       	push	r16
    117c:	1f 93       	push	r17
    117e:	cf 93       	push	r28
    1180:	df 93       	push	r29
    1182:	cd b7       	in	r28, 0x3d	; 61
    1184:	de b7       	in	r29, 0x3e	; 62
    1186:	64 97       	sbiw	r28, 0x14	; 20
    1188:	0f b6       	in	r0, 0x3f	; 63
    118a:	f8 94       	cli
    118c:	de bf       	out	0x3e, r29	; 62
    118e:	0f be       	out	0x3f, r0	; 63
    1190:	cd bf       	out	0x3d, r28	; 61
	
	char buffer[20];
	LCDGotoXY(0,0);
    1192:	60 e0       	ldi	r22, 0x00	; 0
    1194:	80 e0       	ldi	r24, 0x00	; 0
    1196:	0e 94 02 04 	call	0x804	; 0x804 <LCDGotoXY>
	sprintf(buffer, "%04i %04i",dutyL, dutyR);
    119a:	80 91 30 01 	lds	r24, 0x0130
    119e:	8f 93       	push	r24
    11a0:	80 91 2f 01 	lds	r24, 0x012F
    11a4:	8f 93       	push	r24
    11a6:	80 91 32 01 	lds	r24, 0x0132
    11aa:	8f 93       	push	r24
    11ac:	80 91 31 01 	lds	r24, 0x0131
    11b0:	8f 93       	push	r24
    11b2:	82 ef       	ldi	r24, 0xF2	; 242
    11b4:	90 e0       	ldi	r25, 0x00	; 0
    11b6:	9f 93       	push	r25
    11b8:	8f 93       	push	r24
    11ba:	8e 01       	movw	r16, r28
    11bc:	0f 5f       	subi	r16, 0xFF	; 255
    11be:	1f 4f       	sbci	r17, 0xFF	; 255
    11c0:	1f 93       	push	r17
    11c2:	0f 93       	push	r16
    11c4:	0e 94 a9 0d 	call	0x1b52	; 0x1b52 <sprintf>
	LCDPutString(buffer);
    11c8:	c8 01       	movw	r24, r16
    11ca:	0e 94 42 04 	call	0x884	; 0x884 <LCDPutString>
    11ce:	0f b6       	in	r0, 0x3f	; 63
    11d0:	f8 94       	cli
    11d2:	de bf       	out	0x3e, r29	; 62
    11d4:	0f be       	out	0x3f, r0	; 63
    11d6:	cd bf       	out	0x3d, r28	; 61
}
    11d8:	64 96       	adiw	r28, 0x14	; 20
    11da:	0f b6       	in	r0, 0x3f	; 63
    11dc:	f8 94       	cli
    11de:	de bf       	out	0x3e, r29	; 62
    11e0:	0f be       	out	0x3f, r0	; 63
    11e2:	cd bf       	out	0x3d, r28	; 61
    11e4:	df 91       	pop	r29
    11e6:	cf 91       	pop	r28
    11e8:	1f 91       	pop	r17
    11ea:	0f 91       	pop	r16
    11ec:	08 95       	ret

000011ee <calcDuty>:
	return sensorMotorR;
}

// PI controller. 
// Computes the Duty Cycle for desired speed and bias and set the dutyCycle.
void calcDuty(uint16_t ref, float error){
    11ee:	4f 92       	push	r4
    11f0:	5f 92       	push	r5
    11f2:	6f 92       	push	r6
    11f4:	7f 92       	push	r7
    11f6:	8f 92       	push	r8
    11f8:	9f 92       	push	r9
    11fa:	af 92       	push	r10
    11fc:	bf 92       	push	r11
    11fe:	cf 92       	push	r12
    1200:	df 92       	push	r13
    1202:	ef 92       	push	r14
    1204:	ff 92       	push	r15
    1206:	cf 93       	push	r28
    1208:	df 93       	push	r29
    120a:	cd b7       	in	r28, 0x3d	; 61
    120c:	de b7       	in	r29, 0x3e	; 62
    120e:	2c 97       	sbiw	r28, 0x0c	; 12
    1210:	0f b6       	in	r0, 0x3f	; 63
    1212:	f8 94       	cli
    1214:	de bf       	out	0x3e, r29	; 62
    1216:	0f be       	out	0x3f, r0	; 63
    1218:	cd bf       	out	0x3d, r28	; 61
    121a:	6a 01       	movw	r12, r20
    121c:	7b 01       	movw	r14, r22
	
	// Find the error values
	errorL = ref - (float)getSensorMotorL() - error;
    121e:	bc 01       	movw	r22, r24
    1220:	80 e0       	ldi	r24, 0x00	; 0
    1222:	90 e0       	ldi	r25, 0x00	; 0
    1224:	0e 94 a8 0c 	call	0x1950	; 0x1950 <__floatunsisf>
    1228:	2b 01       	movw	r4, r22
    122a:	3c 01       	movw	r6, r24
	}
}

// Get the count value from left Motor
uint8_t getSensorMotorL(){
	return sensorMotorL;
    122c:	60 91 1b 01 	lds	r22, 0x011B
// PI controller. 
// Computes the Duty Cycle for desired speed and bias and set the dutyCycle.
void calcDuty(uint16_t ref, float error){
	
	// Find the error values
	errorL = ref - (float)getSensorMotorL() - error;
    1230:	70 e0       	ldi	r23, 0x00	; 0
    1232:	80 e0       	ldi	r24, 0x00	; 0
    1234:	90 e0       	ldi	r25, 0x00	; 0
    1236:	0e 94 a8 0c 	call	0x1950	; 0x1950 <__floatunsisf>
    123a:	9b 01       	movw	r18, r22
    123c:	ac 01       	movw	r20, r24
    123e:	c3 01       	movw	r24, r6
    1240:	b2 01       	movw	r22, r4
    1242:	0e 94 05 0c 	call	0x180a	; 0x180a <__subsf3>
    1246:	a7 01       	movw	r20, r14
    1248:	96 01       	movw	r18, r12
    124a:	0e 94 05 0c 	call	0x180a	; 0x180a <__subsf3>
    124e:	4b 01       	movw	r8, r22
    1250:	5c 01       	movw	r10, r24
    1252:	60 93 23 01 	sts	0x0123, r22
    1256:	70 93 24 01 	sts	0x0124, r23
    125a:	80 93 25 01 	sts	0x0125, r24
    125e:	90 93 26 01 	sts	0x0126, r25
	return sensorMotorL;
}

// Get the count value from Right Motor
uint8_t getSensorMotorR(){
	return sensorMotorR;
    1262:	60 91 1c 01 	lds	r22, 0x011C
// Computes the Duty Cycle for desired speed and bias and set the dutyCycle.
void calcDuty(uint16_t ref, float error){
	
	// Find the error values
	errorL = ref - (float)getSensorMotorL() - error;
	errorR = ref - (float)getSensorMotorR() + error;
    1266:	70 e0       	ldi	r23, 0x00	; 0
    1268:	80 e0       	ldi	r24, 0x00	; 0
    126a:	90 e0       	ldi	r25, 0x00	; 0
    126c:	0e 94 a8 0c 	call	0x1950	; 0x1950 <__floatunsisf>
    1270:	9b 01       	movw	r18, r22
    1272:	ac 01       	movw	r20, r24
    1274:	c3 01       	movw	r24, r6
    1276:	b2 01       	movw	r22, r4
    1278:	0e 94 05 0c 	call	0x180a	; 0x180a <__subsf3>
    127c:	a7 01       	movw	r20, r14
    127e:	96 01       	movw	r18, r12
    1280:	0e 94 06 0c 	call	0x180c	; 0x180c <__addsf3>
    1284:	6b 01       	movw	r12, r22
    1286:	7c 01       	movw	r14, r24
    1288:	60 93 1f 01 	sts	0x011F, r22
    128c:	70 93 20 01 	sts	0x0120, r23
    1290:	80 93 21 01 	sts	0x0121, r24
    1294:	90 93 22 01 	sts	0x0122, r25
	
	// Anti windup
	if((dutyL >=250) || (dutyL < 0)){
    1298:	80 91 31 01 	lds	r24, 0x0131
    129c:	90 91 32 01 	lds	r25, 0x0132
    12a0:	8a 3f       	cpi	r24, 0xFA	; 250
    12a2:	91 05       	cpc	r25, r1
    12a4:	18 f0       	brcs	.+6      	; 0x12ac <calcDuty+0xbe>
		windL = 0;
    12a6:	10 92 76 00 	sts	0x0076, r1
    12aa:	03 c0       	rjmp	.+6      	; 0x12b2 <calcDuty+0xc4>
	}
	else{
		windL = 1;
    12ac:	81 e0       	ldi	r24, 0x01	; 1
    12ae:	80 93 76 00 	sts	0x0076, r24
	}			

	if((dutyR >=250) || (dutyR < 0)){
    12b2:	80 91 2f 01 	lds	r24, 0x012F
    12b6:	90 91 30 01 	lds	r25, 0x0130
    12ba:	8a 3f       	cpi	r24, 0xFA	; 250
    12bc:	91 05       	cpc	r25, r1
    12be:	18 f0       	brcs	.+6      	; 0x12c6 <calcDuty+0xd8>
		windR = 0;
    12c0:	10 92 75 00 	sts	0x0075, r1
    12c4:	03 c0       	rjmp	.+6      	; 0x12cc <calcDuty+0xde>
	}
	else{
		windR = 1;
    12c6:	81 e0       	ldi	r24, 0x01	; 1
    12c8:	80 93 75 00 	sts	0x0075, r24
	}	

	// Calculate integration sum.
	intL = intL + errorL*T*windL;
    12cc:	80 91 69 00 	lds	r24, 0x0069
    12d0:	90 91 6a 00 	lds	r25, 0x006A
    12d4:	a0 91 6b 00 	lds	r26, 0x006B
    12d8:	b0 91 6c 00 	lds	r27, 0x006C
    12dc:	89 83       	std	Y+1, r24	; 0x01
    12de:	9a 83       	std	Y+2, r25	; 0x02
    12e0:	ab 83       	std	Y+3, r26	; 0x03
    12e2:	bc 83       	std	Y+4, r27	; 0x04
    12e4:	9c 01       	movw	r18, r24
    12e6:	ad 01       	movw	r20, r26
    12e8:	c5 01       	movw	r24, r10
    12ea:	b4 01       	movw	r22, r8
    12ec:	0e 94 36 0d 	call	0x1a6c	; 0x1a6c <__mulsf3>
    12f0:	2b 01       	movw	r4, r22
    12f2:	3c 01       	movw	r6, r24
    12f4:	60 91 76 00 	lds	r22, 0x0076
    12f8:	70 e0       	ldi	r23, 0x00	; 0
    12fa:	80 e0       	ldi	r24, 0x00	; 0
    12fc:	90 e0       	ldi	r25, 0x00	; 0
    12fe:	0e 94 aa 0c 	call	0x1954	; 0x1954 <__floatsisf>
    1302:	9b 01       	movw	r18, r22
    1304:	ac 01       	movw	r20, r24
    1306:	c3 01       	movw	r24, r6
    1308:	b2 01       	movw	r22, r4
    130a:	0e 94 36 0d 	call	0x1a6c	; 0x1a6c <__mulsf3>
    130e:	20 91 2b 01 	lds	r18, 0x012B
    1312:	30 91 2c 01 	lds	r19, 0x012C
    1316:	40 91 2d 01 	lds	r20, 0x012D
    131a:	50 91 2e 01 	lds	r21, 0x012E
    131e:	0e 94 06 0c 	call	0x180c	; 0x180c <__addsf3>
    1322:	2b 01       	movw	r4, r22
    1324:	3c 01       	movw	r6, r24
    1326:	60 93 2b 01 	sts	0x012B, r22
    132a:	70 93 2c 01 	sts	0x012C, r23
    132e:	80 93 2d 01 	sts	0x012D, r24
    1332:	90 93 2e 01 	sts	0x012E, r25
	intR = intR + errorR*T*windR;
    1336:	29 81       	ldd	r18, Y+1	; 0x01
    1338:	3a 81       	ldd	r19, Y+2	; 0x02
    133a:	4b 81       	ldd	r20, Y+3	; 0x03
    133c:	5c 81       	ldd	r21, Y+4	; 0x04
    133e:	c7 01       	movw	r24, r14
    1340:	b6 01       	movw	r22, r12
    1342:	0e 94 36 0d 	call	0x1a6c	; 0x1a6c <__mulsf3>
    1346:	69 83       	std	Y+1, r22	; 0x01
    1348:	7a 83       	std	Y+2, r23	; 0x02
    134a:	8b 83       	std	Y+3, r24	; 0x03
    134c:	9c 83       	std	Y+4, r25	; 0x04
    134e:	60 91 75 00 	lds	r22, 0x0075
    1352:	70 e0       	ldi	r23, 0x00	; 0
    1354:	80 e0       	ldi	r24, 0x00	; 0
    1356:	90 e0       	ldi	r25, 0x00	; 0
    1358:	0e 94 aa 0c 	call	0x1954	; 0x1954 <__floatsisf>
    135c:	9b 01       	movw	r18, r22
    135e:	ac 01       	movw	r20, r24
    1360:	69 81       	ldd	r22, Y+1	; 0x01
    1362:	7a 81       	ldd	r23, Y+2	; 0x02
    1364:	8b 81       	ldd	r24, Y+3	; 0x03
    1366:	9c 81       	ldd	r25, Y+4	; 0x04
    1368:	0e 94 36 0d 	call	0x1a6c	; 0x1a6c <__mulsf3>
    136c:	20 91 27 01 	lds	r18, 0x0127
    1370:	30 91 28 01 	lds	r19, 0x0128
    1374:	40 91 29 01 	lds	r20, 0x0129
    1378:	50 91 2a 01 	lds	r21, 0x012A
    137c:	0e 94 06 0c 	call	0x180c	; 0x180c <__addsf3>
    1380:	69 87       	std	Y+9, r22	; 0x09
    1382:	7a 87       	std	Y+10, r23	; 0x0a
    1384:	8b 87       	std	Y+11, r24	; 0x0b
    1386:	9c 87       	std	Y+12, r25	; 0x0c
    1388:	60 93 27 01 	sts	0x0127, r22
    138c:	70 93 28 01 	sts	0x0128, r23
    1390:	80 93 29 01 	sts	0x0129, r24
    1394:	90 93 2a 01 	sts	0x012A, r25


	// Calculate new DutyCycle values.
	// *12.5 to transform from pulses to DutyCycle
	dutyL = (signed int)((intL*Ki + errorL*Kp)*12.5);
    1398:	80 91 6d 00 	lds	r24, 0x006D
    139c:	90 91 6e 00 	lds	r25, 0x006E
    13a0:	a0 91 6f 00 	lds	r26, 0x006F
    13a4:	b0 91 70 00 	lds	r27, 0x0070
    13a8:	89 83       	std	Y+1, r24	; 0x01
    13aa:	9a 83       	std	Y+2, r25	; 0x02
    13ac:	ab 83       	std	Y+3, r26	; 0x03
    13ae:	bc 83       	std	Y+4, r27	; 0x04
    13b0:	80 91 71 00 	lds	r24, 0x0071
    13b4:	90 91 72 00 	lds	r25, 0x0072
    13b8:	a0 91 73 00 	lds	r26, 0x0073
    13bc:	b0 91 74 00 	lds	r27, 0x0074
    13c0:	8d 83       	std	Y+5, r24	; 0x05
    13c2:	9e 83       	std	Y+6, r25	; 0x06
    13c4:	af 83       	std	Y+7, r26	; 0x07
    13c6:	b8 87       	std	Y+8, r27	; 0x08
    13c8:	29 81       	ldd	r18, Y+1	; 0x01
    13ca:	3a 81       	ldd	r19, Y+2	; 0x02
    13cc:	4b 81       	ldd	r20, Y+3	; 0x03
    13ce:	5c 81       	ldd	r21, Y+4	; 0x04
    13d0:	c3 01       	movw	r24, r6
    13d2:	b2 01       	movw	r22, r4
    13d4:	0e 94 36 0d 	call	0x1a6c	; 0x1a6c <__mulsf3>
    13d8:	2b 01       	movw	r4, r22
    13da:	3c 01       	movw	r6, r24
    13dc:	2d 81       	ldd	r18, Y+5	; 0x05
    13de:	3e 81       	ldd	r19, Y+6	; 0x06
    13e0:	4f 81       	ldd	r20, Y+7	; 0x07
    13e2:	58 85       	ldd	r21, Y+8	; 0x08
    13e4:	c5 01       	movw	r24, r10
    13e6:	b4 01       	movw	r22, r8
    13e8:	0e 94 36 0d 	call	0x1a6c	; 0x1a6c <__mulsf3>
    13ec:	9b 01       	movw	r18, r22
    13ee:	ac 01       	movw	r20, r24
    13f0:	c3 01       	movw	r24, r6
    13f2:	b2 01       	movw	r22, r4
    13f4:	0e 94 06 0c 	call	0x180c	; 0x180c <__addsf3>
    13f8:	20 e0       	ldi	r18, 0x00	; 0
    13fa:	30 e0       	ldi	r19, 0x00	; 0
    13fc:	48 e4       	ldi	r20, 0x48	; 72
    13fe:	51 e4       	ldi	r21, 0x41	; 65
    1400:	0e 94 36 0d 	call	0x1a6c	; 0x1a6c <__mulsf3>
    1404:	0e 94 72 0c 	call	0x18e4	; 0x18e4 <__fixsfsi>
    1408:	2b 01       	movw	r4, r22
    140a:	3c 01       	movw	r6, r24
    140c:	70 93 32 01 	sts	0x0132, r23
    1410:	60 93 31 01 	sts	0x0131, r22
	dutyR = (signed int)((intR*Ki + errorR*Kp)*12.5);
    1414:	29 81       	ldd	r18, Y+1	; 0x01
    1416:	3a 81       	ldd	r19, Y+2	; 0x02
    1418:	4b 81       	ldd	r20, Y+3	; 0x03
    141a:	5c 81       	ldd	r21, Y+4	; 0x04
    141c:	69 85       	ldd	r22, Y+9	; 0x09
    141e:	7a 85       	ldd	r23, Y+10	; 0x0a
    1420:	8b 85       	ldd	r24, Y+11	; 0x0b
    1422:	9c 85       	ldd	r25, Y+12	; 0x0c
    1424:	0e 94 36 0d 	call	0x1a6c	; 0x1a6c <__mulsf3>
    1428:	4b 01       	movw	r8, r22
    142a:	5c 01       	movw	r10, r24
    142c:	2d 81       	ldd	r18, Y+5	; 0x05
    142e:	3e 81       	ldd	r19, Y+6	; 0x06
    1430:	4f 81       	ldd	r20, Y+7	; 0x07
    1432:	58 85       	ldd	r21, Y+8	; 0x08
    1434:	c7 01       	movw	r24, r14
    1436:	b6 01       	movw	r22, r12
    1438:	0e 94 36 0d 	call	0x1a6c	; 0x1a6c <__mulsf3>
    143c:	9b 01       	movw	r18, r22
    143e:	ac 01       	movw	r20, r24
    1440:	c5 01       	movw	r24, r10
    1442:	b4 01       	movw	r22, r8
    1444:	0e 94 06 0c 	call	0x180c	; 0x180c <__addsf3>
    1448:	20 e0       	ldi	r18, 0x00	; 0
    144a:	30 e0       	ldi	r19, 0x00	; 0
    144c:	48 e4       	ldi	r20, 0x48	; 72
    144e:	51 e4       	ldi	r21, 0x41	; 65
    1450:	0e 94 36 0d 	call	0x1a6c	; 0x1a6c <__mulsf3>
    1454:	0e 94 72 0c 	call	0x18e4	; 0x18e4 <__fixsfsi>
    1458:	70 93 30 01 	sts	0x0130, r23
    145c:	60 93 2f 01 	sts	0x012F, r22

	setDutyCycleMotorL(dutyL);
    1460:	c2 01       	movw	r24, r4
    1462:	0e 94 81 08 	call	0x1102	; 0x1102 <setDutyCycleMotorL>
	setDutyCycleMotorR(dutyR);
    1466:	80 91 2f 01 	lds	r24, 0x012F
    146a:	90 91 30 01 	lds	r25, 0x0130
    146e:	0e 94 87 08 	call	0x110e	; 0x110e <setDutyCycleMotorR>

	// Show 
	showMotorInfo();
    1472:	0e 94 bd 08 	call	0x117a	; 0x117a <showMotorInfo>

}
    1476:	2c 96       	adiw	r28, 0x0c	; 12
    1478:	0f b6       	in	r0, 0x3f	; 63
    147a:	f8 94       	cli
    147c:	de bf       	out	0x3e, r29	; 62
    147e:	0f be       	out	0x3f, r0	; 63
    1480:	cd bf       	out	0x3d, r28	; 61
    1482:	df 91       	pop	r29
    1484:	cf 91       	pop	r28
    1486:	ff 90       	pop	r15
    1488:	ef 90       	pop	r14
    148a:	df 90       	pop	r13
    148c:	cf 90       	pop	r12
    148e:	bf 90       	pop	r11
    1490:	af 90       	pop	r10
    1492:	9f 90       	pop	r9
    1494:	8f 90       	pop	r8
    1496:	7f 90       	pop	r7
    1498:	6f 90       	pop	r6
    149a:	5f 90       	pop	r5
    149c:	4f 90       	pop	r4
    149e:	08 95       	ret

000014a0 <__vector_1>:
/////////////////////////////////////////////////////////////////////////
//                       Interrupt service routines                    //
/////////////////////////////////////////////////////////////////////////

// Interrupt from SensorA, Right Motor
ISR(INT0_vect){
    14a0:	1f 92       	push	r1
    14a2:	0f 92       	push	r0
    14a4:	0f b6       	in	r0, 0x3f	; 63
    14a6:	0f 92       	push	r0
    14a8:	11 24       	eor	r1, r1
    14aa:	8f 93       	push	r24
	sensorMotorR_temp++;
    14ac:	80 91 1e 01 	lds	r24, 0x011E
    14b0:	8f 5f       	subi	r24, 0xFF	; 255
    14b2:	80 93 1e 01 	sts	0x011E, r24
}
    14b6:	8f 91       	pop	r24
    14b8:	0f 90       	pop	r0
    14ba:	0f be       	out	0x3f, r0	; 63
    14bc:	0f 90       	pop	r0
    14be:	1f 90       	pop	r1
    14c0:	18 95       	reti

000014c2 <__vector_2>:

// Interrupt from SensorB, Left Motor
ISR(INT1_vect){
    14c2:	1f 92       	push	r1
    14c4:	0f 92       	push	r0
    14c6:	0f b6       	in	r0, 0x3f	; 63
    14c8:	0f 92       	push	r0
    14ca:	11 24       	eor	r1, r1
    14cc:	8f 93       	push	r24
	sensorMotorL_temp++;
    14ce:	80 91 1d 01 	lds	r24, 0x011D
    14d2:	8f 5f       	subi	r24, 0xFF	; 255
    14d4:	80 93 1d 01 	sts	0x011D, r24
}
    14d8:	8f 91       	pop	r24
    14da:	0f 90       	pop	r0
    14dc:	0f be       	out	0x3f, r0	; 63
    14de:	0f 90       	pop	r0
    14e0:	1f 90       	pop	r1
    14e2:	18 95       	reti

000014e4 <__vector_10>:

// Safe current value of counts from the sensors every ~10ms and clear the counters.
ISR(TIMER0_COMP_vect){
    14e4:	1f 92       	push	r1
    14e6:	0f 92       	push	r0
    14e8:	0f b6       	in	r0, 0x3f	; 63
    14ea:	0f 92       	push	r0
    14ec:	11 24       	eor	r1, r1
    14ee:	8f 93       	push	r24
	sensorMotorR = sensorMotorR_temp;
    14f0:	80 91 1e 01 	lds	r24, 0x011E
    14f4:	80 93 1c 01 	sts	0x011C, r24
	sensorMotorR_temp = 0;
    14f8:	10 92 1e 01 	sts	0x011E, r1
	sensorMotorL = sensorMotorL_temp;
    14fc:	80 91 1d 01 	lds	r24, 0x011D
    1500:	80 93 1b 01 	sts	0x011B, r24
	sensorMotorL_temp = 0;
    1504:	10 92 1d 01 	sts	0x011D, r1
	sensorUpdateFlag = 1;
    1508:	81 e0       	ldi	r24, 0x01	; 1
    150a:	80 93 1a 01 	sts	0x011A, r24
}
    150e:	8f 91       	pop	r24
    1510:	0f 90       	pop	r0
    1512:	0f be       	out	0x3f, r0	; 63
    1514:	0f 90       	pop	r0
    1516:	1f 90       	pop	r1
    1518:	18 95       	reti

0000151a <showPlace>:
/////////////////////////////////////////////////////////////////////////
//                       Public functions                              //
/////////////////////////////////////////////////////////////////////////

// Write on display wall function number, 2nd line on LCD
void showPlace(uint8_t value){
    151a:	0f 93       	push	r16
    151c:	1f 93       	push	r17
    151e:	cf 93       	push	r28
    1520:	df 93       	push	r29
    1522:	cd b7       	in	r28, 0x3d	; 61
    1524:	de b7       	in	r29, 0x3e	; 62
    1526:	64 97       	sbiw	r28, 0x14	; 20
    1528:	0f b6       	in	r0, 0x3f	; 63
    152a:	f8 94       	cli
    152c:	de bf       	out	0x3e, r29	; 62
    152e:	0f be       	out	0x3f, r0	; 63
    1530:	cd bf       	out	0x3d, r28	; 61
    1532:	18 2f       	mov	r17, r24
	
	char buffer[20];
	LCDGotoXY(0,1);
    1534:	61 e0       	ldi	r22, 0x01	; 1
    1536:	80 e0       	ldi	r24, 0x00	; 0
    1538:	0e 94 02 04 	call	0x804	; 0x804 <LCDGotoXY>
	sprintf(buffer, "%02i", value);
    153c:	1f 92       	push	r1
    153e:	1f 93       	push	r17
    1540:	8c ef       	ldi	r24, 0xFC	; 252
    1542:	90 e0       	ldi	r25, 0x00	; 0
    1544:	9f 93       	push	r25
    1546:	8f 93       	push	r24
    1548:	8e 01       	movw	r16, r28
    154a:	0f 5f       	subi	r16, 0xFF	; 255
    154c:	1f 4f       	sbci	r17, 0xFF	; 255
    154e:	1f 93       	push	r17
    1550:	0f 93       	push	r16
    1552:	0e 94 a9 0d 	call	0x1b52	; 0x1b52 <sprintf>
	LCDPutString(buffer);
    1556:	c8 01       	movw	r24, r16
    1558:	0e 94 42 04 	call	0x884	; 0x884 <LCDPutString>
    155c:	0f 90       	pop	r0
    155e:	0f 90       	pop	r0
    1560:	0f 90       	pop	r0
    1562:	0f 90       	pop	r0
    1564:	0f 90       	pop	r0
    1566:	0f 90       	pop	r0
}
    1568:	64 96       	adiw	r28, 0x14	; 20
    156a:	0f b6       	in	r0, 0x3f	; 63
    156c:	f8 94       	cli
    156e:	de bf       	out	0x3e, r29	; 62
    1570:	0f be       	out	0x3f, r0	; 63
    1572:	cd bf       	out	0x3d, r28	; 61
    1574:	df 91       	pop	r29
    1576:	cf 91       	pop	r28
    1578:	1f 91       	pop	r17
    157a:	0f 91       	pop	r16
    157c:	08 95       	ret

0000157e <calcWallError>:

// Calculates the error from wall sensor
float calcWallError(void){

	uint16_t adc=0;	
	adc=AdcConvert(2);
    157e:	82 e0       	ldi	r24, 0x02	; 2
    1580:	0e 94 50 00 	call	0xa0	; 0xa0 <AdcConvert>

	// Check Position from wall

	if(adc<=150){ 
    1584:	87 39       	cpi	r24, 0x97	; 151
    1586:	91 05       	cpc	r25, r1
    1588:	28 f0       	brcs	.+10     	; 0x1594 <calcWallError+0x16>
		return 2;
	}		
	if(adc>150){
		return -2; 
    158a:	60 e0       	ldi	r22, 0x00	; 0
    158c:	70 e0       	ldi	r23, 0x00	; 0
    158e:	80 e0       	ldi	r24, 0x00	; 0
    1590:	90 ec       	ldi	r25, 0xC0	; 192
    1592:	08 95       	ret
	adc=AdcConvert(2);

	// Check Position from wall

	if(adc<=150){ 
		return 2;
    1594:	60 e0       	ldi	r22, 0x00	; 0
    1596:	70 e0       	ldi	r23, 0x00	; 0
    1598:	80 e0       	ldi	r24, 0x00	; 0
    159a:	90 e4       	ldi	r25, 0x40	; 64
	}		
	if(adc>150){
		return -2; 
	}
	return 0;
}
    159c:	08 95       	ret

0000159e <fullStop>:

//Stops the robot by driving backwards for 80 ms
void fullStop(void){

	setDirectionMotorL(1);
    159e:	81 e0       	ldi	r24, 0x01	; 1
    15a0:	0e 94 8d 08 	call	0x111a	; 0x111a <setDirectionMotorL>
	setDirectionMotorR(1);
    15a4:	81 e0       	ldi	r24, 0x01	; 1
    15a6:	0e 94 99 08 	call	0x1132	; 0x1132 <setDirectionMotorR>
	setDutyCycleMotorL(100);
    15aa:	84 e6       	ldi	r24, 0x64	; 100
    15ac:	90 e0       	ldi	r25, 0x00	; 0
    15ae:	0e 94 81 08 	call	0x1102	; 0x1102 <setDutyCycleMotorL>
	setDutyCycleMotorR(100);
    15b2:	84 e6       	ldi	r24, 0x64	; 100
    15b4:	90 e0       	ldi	r25, 0x00	; 0
    15b6:	0e 94 87 08 	call	0x110e	; 0x110e <setDutyCycleMotorR>
    15ba:	2f ef       	ldi	r18, 0xFF	; 255
    15bc:	80 e7       	ldi	r24, 0x70	; 112
    15be:	92 e0       	ldi	r25, 0x02	; 2
    15c0:	21 50       	subi	r18, 0x01	; 1
    15c2:	80 40       	sbci	r24, 0x00	; 0
    15c4:	90 40       	sbci	r25, 0x00	; 0
    15c6:	e1 f7       	brne	.-8      	; 0x15c0 <fullStop+0x22>
    15c8:	00 c0       	rjmp	.+0      	; 0x15ca <fullStop+0x2c>
    15ca:	00 00       	nop
	_delay_ms(80);
	setDutyCycleMotorL(0);
    15cc:	80 e0       	ldi	r24, 0x00	; 0
    15ce:	90 e0       	ldi	r25, 0x00	; 0
    15d0:	0e 94 81 08 	call	0x1102	; 0x1102 <setDutyCycleMotorL>
	setDutyCycleMotorR(0);
    15d4:	80 e0       	ldi	r24, 0x00	; 0
    15d6:	90 e0       	ldi	r25, 0x00	; 0
    15d8:	0e 94 87 08 	call	0x110e	; 0x110e <setDutyCycleMotorR>
    15dc:	08 95       	ret

000015de <forward_stop>:
}

//Makes the robot go straight forward and stop at the wall. 
//Parameter: stop: distance (to the wall): 0-620, speed: 0-250 
void forward_stop(uint16_t distance){
    15de:	cf 93       	push	r28
    15e0:	df 93       	push	r29
    15e2:	ec 01       	movw	r28, r24

	setDirectionMotorL(0);
    15e4:	80 e0       	ldi	r24, 0x00	; 0
    15e6:	0e 94 8d 08 	call	0x111a	; 0x111a <setDirectionMotorL>
	setDirectionMotorR(0);
    15ea:	80 e0       	ldi	r24, 0x00	; 0
    15ec:	0e 94 99 08 	call	0x1132	; 0x1132 <setDirectionMotorR>

	while (distance > AdcConvert(1)){
    15f0:	10 c0       	rjmp	.+32     	; 0x1612 <forward_stop+0x34>
		showPlace(1);
    15f2:	81 e0       	ldi	r24, 0x01	; 1
    15f4:	0e 94 8d 0a 	call	0x151a	; 0x151a <showPlace>
		if(getSensorUpdateFlag()){
    15f8:	0e 94 71 08 	call	0x10e2	; 0x10e2 <getSensorUpdateFlag>
    15fc:	88 23       	and	r24, r24
    15fe:	49 f0       	breq	.+18     	; 0x1612 <forward_stop+0x34>
			// Calculate and set new dutyCycle.
			calcDuty(6, 0);
    1600:	40 e0       	ldi	r20, 0x00	; 0
    1602:	50 e0       	ldi	r21, 0x00	; 0
    1604:	ba 01       	movw	r22, r20
    1606:	86 e0       	ldi	r24, 0x06	; 6
    1608:	90 e0       	ldi	r25, 0x00	; 0
    160a:	0e 94 f7 08 	call	0x11ee	; 0x11ee <calcDuty>
			clearSensorUpdateFlag();
    160e:	0e 94 74 08 	call	0x10e8	; 0x10e8 <clearSensorUpdateFlag>
void forward_stop(uint16_t distance){

	setDirectionMotorL(0);
	setDirectionMotorR(0);

	while (distance > AdcConvert(1)){
    1612:	81 e0       	ldi	r24, 0x01	; 1
    1614:	0e 94 50 00 	call	0xa0	; 0xa0 <AdcConvert>
    1618:	8c 17       	cp	r24, r28
    161a:	9d 07       	cpc	r25, r29
    161c:	50 f3       	brcs	.-44     	; 0x15f2 <forward_stop+0x14>
			// Calculate and set new dutyCycle.
			calcDuty(6, 0);
			clearSensorUpdateFlag();
		}
	}
	fullStop();
    161e:	0e 94 cf 0a 	call	0x159e	; 0x159e <fullStop>
}
    1622:	df 91       	pop	r29
    1624:	cf 91       	pop	r28
    1626:	08 95       	ret

00001628 <turn_90>:

//Makes the robot turn 90 degrees. 
//Parameter: direction,- 1:left, 2:right 
void turn_90(uint16_t LR){

		if(LR=='L'){
    1628:	8c 34       	cpi	r24, 0x4C	; 76
    162a:	91 05       	cpc	r25, r1
    162c:	31 f5       	brne	.+76     	; 0x167a <turn_90+0x52>
		go(260, 1, 6);
    162e:	46 e0       	ldi	r20, 0x06	; 6
    1630:	61 e0       	ldi	r22, 0x01	; 1
    1632:	84 e0       	ldi	r24, 0x04	; 4
    1634:	91 e0       	ldi	r25, 0x01	; 1
    1636:	0e 94 c8 06 	call	0xd90	; 0xd90 <go>
		setDirectionMotorL(0);
    163a:	80 e0       	ldi	r24, 0x00	; 0
    163c:	0e 94 8d 08 	call	0x111a	; 0x111a <setDirectionMotorL>
		setDirectionMotorR(1);
    1640:	81 e0       	ldi	r24, 0x01	; 1
    1642:	0e 94 99 08 	call	0x1132	; 0x1132 <setDirectionMotorR>
		setDutyCycleMotorL(100);
    1646:	84 e6       	ldi	r24, 0x64	; 100
    1648:	90 e0       	ldi	r25, 0x00	; 0
    164a:	0e 94 81 08 	call	0x1102	; 0x1102 <setDutyCycleMotorL>
		setDutyCycleMotorR(100);
    164e:	84 e6       	ldi	r24, 0x64	; 100
    1650:	90 e0       	ldi	r25, 0x00	; 0
    1652:	0e 94 87 08 	call	0x110e	; 0x110e <setDutyCycleMotorR>
    1656:	2f eb       	ldi	r18, 0xBF	; 191
    1658:	84 ed       	ldi	r24, 0xD4	; 212
    165a:	91 e0       	ldi	r25, 0x01	; 1
    165c:	21 50       	subi	r18, 0x01	; 1
    165e:	80 40       	sbci	r24, 0x00	; 0
    1660:	90 40       	sbci	r25, 0x00	; 0
    1662:	e1 f7       	brne	.-8      	; 0x165c <turn_90+0x34>
    1664:	00 c0       	rjmp	.+0      	; 0x1666 <turn_90+0x3e>
    1666:	00 00       	nop
		_delay_ms(60);
		setDutyCycleMotorL(0);
    1668:	80 e0       	ldi	r24, 0x00	; 0
    166a:	90 e0       	ldi	r25, 0x00	; 0
    166c:	0e 94 81 08 	call	0x1102	; 0x1102 <setDutyCycleMotorL>
		setDutyCycleMotorR(0);
    1670:	80 e0       	ldi	r24, 0x00	; 0
    1672:	90 e0       	ldi	r25, 0x00	; 0
    1674:	0e 94 87 08 	call	0x110e	; 0x110e <setDutyCycleMotorR>
    1678:	08 95       	ret
		}
		
		if(LR=='R'){
    167a:	82 35       	cpi	r24, 0x52	; 82
    167c:	91 05       	cpc	r25, r1
    167e:	29 f5       	brne	.+74     	; 0x16ca <turn_90+0xa2>
		go(240, 2, 6);
    1680:	46 e0       	ldi	r20, 0x06	; 6
    1682:	62 e0       	ldi	r22, 0x02	; 2
    1684:	80 ef       	ldi	r24, 0xF0	; 240
    1686:	90 e0       	ldi	r25, 0x00	; 0
    1688:	0e 94 c8 06 	call	0xd90	; 0xd90 <go>
		setDirectionMotorL(1);
    168c:	81 e0       	ldi	r24, 0x01	; 1
    168e:	0e 94 8d 08 	call	0x111a	; 0x111a <setDirectionMotorL>
		setDirectionMotorR(0);
    1692:	80 e0       	ldi	r24, 0x00	; 0
    1694:	0e 94 99 08 	call	0x1132	; 0x1132 <setDirectionMotorR>
		setDutyCycleMotorL(100);
    1698:	84 e6       	ldi	r24, 0x64	; 100
    169a:	90 e0       	ldi	r25, 0x00	; 0
    169c:	0e 94 81 08 	call	0x1102	; 0x1102 <setDutyCycleMotorL>
		setDutyCycleMotorR(100);
    16a0:	84 e6       	ldi	r24, 0x64	; 100
    16a2:	90 e0       	ldi	r25, 0x00	; 0
    16a4:	0e 94 87 08 	call	0x110e	; 0x110e <setDutyCycleMotorR>
    16a8:	2f eb       	ldi	r18, 0xBF	; 191
    16aa:	84 ed       	ldi	r24, 0xD4	; 212
    16ac:	91 e0       	ldi	r25, 0x01	; 1
    16ae:	21 50       	subi	r18, 0x01	; 1
    16b0:	80 40       	sbci	r24, 0x00	; 0
    16b2:	90 40       	sbci	r25, 0x00	; 0
    16b4:	e1 f7       	brne	.-8      	; 0x16ae <turn_90+0x86>
    16b6:	00 c0       	rjmp	.+0      	; 0x16b8 <turn_90+0x90>
    16b8:	00 00       	nop
		_delay_ms(60);
		setDutyCycleMotorL(0);
    16ba:	80 e0       	ldi	r24, 0x00	; 0
    16bc:	90 e0       	ldi	r25, 0x00	; 0
    16be:	0e 94 81 08 	call	0x1102	; 0x1102 <setDutyCycleMotorL>
		setDutyCycleMotorR(0);
    16c2:	80 e0       	ldi	r24, 0x00	; 0
    16c4:	90 e0       	ldi	r25, 0x00	; 0
    16c6:	0e 94 87 08 	call	0x110e	; 0x110e <setDutyCycleMotorR>
    16ca:	08 95       	ret

000016cc <forwardWallLeftStop>:


//Makes the robot go forward until a wall on left side.  
void forwardWallLeftStop(void){

	setDirectionMotorL(0);
    16cc:	80 e0       	ldi	r24, 0x00	; 0
    16ce:	0e 94 8d 08 	call	0x111a	; 0x111a <setDirectionMotorL>
	setDirectionMotorR(0);
    16d2:	80 e0       	ldi	r24, 0x00	; 0
    16d4:	0e 94 99 08 	call	0x1132	; 0x1132 <setDirectionMotorR>

	while (40 < AdcConvert(2)){
    16d8:	10 c0       	rjmp	.+32     	; 0x16fa <forwardWallLeftStop+0x2e>
		showPlace(2);
    16da:	82 e0       	ldi	r24, 0x02	; 2
    16dc:	0e 94 8d 0a 	call	0x151a	; 0x151a <showPlace>
		if(getSensorUpdateFlag()){
    16e0:	0e 94 71 08 	call	0x10e2	; 0x10e2 <getSensorUpdateFlag>
    16e4:	88 23       	and	r24, r24
    16e6:	49 f0       	breq	.+18     	; 0x16fa <forwardWallLeftStop+0x2e>
			calcDuty(6, 0);	
    16e8:	40 e0       	ldi	r20, 0x00	; 0
    16ea:	50 e0       	ldi	r21, 0x00	; 0
    16ec:	ba 01       	movw	r22, r20
    16ee:	86 e0       	ldi	r24, 0x06	; 6
    16f0:	90 e0       	ldi	r25, 0x00	; 0
    16f2:	0e 94 f7 08 	call	0x11ee	; 0x11ee <calcDuty>
			clearSensorUpdateFlag();
    16f6:	0e 94 74 08 	call	0x10e8	; 0x10e8 <clearSensorUpdateFlag>
void forwardWallLeftStop(void){

	setDirectionMotorL(0);
	setDirectionMotorR(0);

	while (40 < AdcConvert(2)){
    16fa:	82 e0       	ldi	r24, 0x02	; 2
    16fc:	0e 94 50 00 	call	0xa0	; 0xa0 <AdcConvert>
    1700:	89 97       	sbiw	r24, 0x29	; 41
    1702:	58 f7       	brcc	.-42     	; 0x16da <forwardWallLeftStop+0xe>
		if(getSensorUpdateFlag()){
			calcDuty(6, 0);	
			clearSensorUpdateFlag();
		}
	}
	go(560,0,6);
    1704:	46 e0       	ldi	r20, 0x06	; 6
    1706:	60 e0       	ldi	r22, 0x00	; 0
    1708:	80 e3       	ldi	r24, 0x30	; 48
    170a:	92 e0       	ldi	r25, 0x02	; 2
    170c:	0e 94 c8 06 	call	0xd90	; 0xd90 <go>
	showPlace(3);
    1710:	83 e0       	ldi	r24, 0x03	; 3
    1712:	0e 94 8d 0a 	call	0x151a	; 0x151a <showPlace>
    1716:	08 95       	ret

00001718 <forwardFindWallLeft>:


//Makes the robot go forward until a wall on left side.  
void forwardFindWallLeft(void){

	setDirectionMotorL(0);
    1718:	80 e0       	ldi	r24, 0x00	; 0
    171a:	0e 94 8d 08 	call	0x111a	; 0x111a <setDirectionMotorL>
	setDirectionMotorR(0);
    171e:	80 e0       	ldi	r24, 0x00	; 0
    1720:	0e 94 99 08 	call	0x1132	; 0x1132 <setDirectionMotorR>

	while (100 > AdcConvert(2)){
    1724:	10 c0       	rjmp	.+32     	; 0x1746 <forwardFindWallLeft+0x2e>
		showPlace(4);
    1726:	84 e0       	ldi	r24, 0x04	; 4
    1728:	0e 94 8d 0a 	call	0x151a	; 0x151a <showPlace>
		if(getSensorUpdateFlag()){
    172c:	0e 94 71 08 	call	0x10e2	; 0x10e2 <getSensorUpdateFlag>
    1730:	88 23       	and	r24, r24
    1732:	49 f0       	breq	.+18     	; 0x1746 <forwardFindWallLeft+0x2e>
			calcDuty(6, 0);	
    1734:	40 e0       	ldi	r20, 0x00	; 0
    1736:	50 e0       	ldi	r21, 0x00	; 0
    1738:	ba 01       	movw	r22, r20
    173a:	86 e0       	ldi	r24, 0x06	; 6
    173c:	90 e0       	ldi	r25, 0x00	; 0
    173e:	0e 94 f7 08 	call	0x11ee	; 0x11ee <calcDuty>
			clearSensorUpdateFlag();
    1742:	0e 94 74 08 	call	0x10e8	; 0x10e8 <clearSensorUpdateFlag>
void forwardFindWallLeft(void){

	setDirectionMotorL(0);
	setDirectionMotorR(0);

	while (100 > AdcConvert(2)){
    1746:	82 e0       	ldi	r24, 0x02	; 2
    1748:	0e 94 50 00 	call	0xa0	; 0xa0 <AdcConvert>
    174c:	84 36       	cpi	r24, 0x64	; 100
    174e:	91 05       	cpc	r25, r1
    1750:	50 f3       	brcs	.-44     	; 0x1726 <forwardFindWallLeft+0xe>
		if(getSensorUpdateFlag()){
			calcDuty(6, 0);	
			clearSensorUpdateFlag();
		}
	}
	setDutyCycleMotorL(0);
    1752:	80 e0       	ldi	r24, 0x00	; 0
    1754:	90 e0       	ldi	r25, 0x00	; 0
    1756:	0e 94 81 08 	call	0x1102	; 0x1102 <setDutyCycleMotorL>
	setDutyCycleMotorR(0);
    175a:	80 e0       	ldi	r24, 0x00	; 0
    175c:	90 e0       	ldi	r25, 0x00	; 0
    175e:	0e 94 87 08 	call	0x110e	; 0x110e <setDutyCycleMotorR>
    1762:	08 95       	ret

00001764 <parallelWall>:

//Makes the robot go parallel with the wall until the wall ends. 
//Parameter: speed: 0-250 
void parallelWall(void){

	setDirectionMotorL(0);
    1764:	80 e0       	ldi	r24, 0x00	; 0
    1766:	0e 94 8d 08 	call	0x111a	; 0x111a <setDirectionMotorL>
	setDirectionMotorR(0);
    176a:	80 e0       	ldi	r24, 0x00	; 0
    176c:	0e 94 99 08 	call	0x1132	; 0x1132 <setDirectionMotorR>
	
	while (250 > AdcConvert(1)){
    1770:	11 c0       	rjmp	.+34     	; 0x1794 <parallelWall+0x30>
		showPlace(5);
    1772:	85 e0       	ldi	r24, 0x05	; 5
    1774:	0e 94 8d 0a 	call	0x151a	; 0x151a <showPlace>
		if(getSensorUpdateFlag()){
    1778:	0e 94 71 08 	call	0x10e2	; 0x10e2 <getSensorUpdateFlag>
    177c:	88 23       	and	r24, r24
    177e:	51 f0       	breq	.+20     	; 0x1794 <parallelWall+0x30>
			calcDuty(6, calcWallError());
    1780:	0e 94 bf 0a 	call	0x157e	; 0x157e <calcWallError>
    1784:	ab 01       	movw	r20, r22
    1786:	bc 01       	movw	r22, r24
    1788:	86 e0       	ldi	r24, 0x06	; 6
    178a:	90 e0       	ldi	r25, 0x00	; 0
    178c:	0e 94 f7 08 	call	0x11ee	; 0x11ee <calcDuty>
			clearSensorUpdateFlag();
    1790:	0e 94 74 08 	call	0x10e8	; 0x10e8 <clearSensorUpdateFlag>
void parallelWall(void){

	setDirectionMotorL(0);
	setDirectionMotorR(0);
	
	while (250 > AdcConvert(1)){
    1794:	81 e0       	ldi	r24, 0x01	; 1
    1796:	0e 94 50 00 	call	0xa0	; 0xa0 <AdcConvert>
    179a:	8a 3f       	cpi	r24, 0xFA	; 250
    179c:	91 05       	cpc	r25, r1
    179e:	48 f3       	brcs	.-46     	; 0x1772 <parallelWall+0xe>
		if(getSensorUpdateFlag()){
			calcDuty(6, calcWallError());
			clearSensorUpdateFlag();
		}
	}
	fullStop();
    17a0:	0e 94 cf 0a 	call	0x159e	; 0x159e <fullStop>
    17a4:	08 95       	ret

000017a6 <runWall>:
}


void runWall(void){
	
	setKp(1.5);
    17a6:	60 e0       	ldi	r22, 0x00	; 0
    17a8:	70 e0       	ldi	r23, 0x00	; 0
    17aa:	80 ec       	ldi	r24, 0xC0	; 192
    17ac:	9f e3       	ldi	r25, 0x3F	; 63
    17ae:	0e 94 ab 08 	call	0x1156	; 0x1156 <setKp>
	setKi(0);
    17b2:	60 e0       	ldi	r22, 0x00	; 0
    17b4:	70 e0       	ldi	r23, 0x00	; 0
    17b6:	cb 01       	movw	r24, r22
    17b8:	0e 94 b4 08 	call	0x1168	; 0x1168 <setKi>
	LCDClear();
    17bc:	0e 94 eb 03 	call	0x7d6	; 0x7d6 <LCDClear>
	clearIntSumError();
    17c0:	0e 94 30 08 	call	0x1060	; 0x1060 <clearIntSumError>

	forward_stop(250);
    17c4:	8a ef       	ldi	r24, 0xFA	; 250
    17c6:	90 e0       	ldi	r25, 0x00	; 0
    17c8:	0e 94 ef 0a 	call	0x15de	; 0x15de <forward_stop>
	turn_90('R');
    17cc:	82 e5       	ldi	r24, 0x52	; 82
    17ce:	90 e0       	ldi	r25, 0x00	; 0
    17d0:	0e 94 14 0b 	call	0x1628	; 0x1628 <turn_90>
	forwardFindWallLeft();
    17d4:	0e 94 8c 0b 	call	0x1718	; 0x1718 <forwardFindWallLeft>
	forwardWallLeftStop();
    17d8:	0e 94 66 0b 	call	0x16cc	; 0x16cc <forwardWallLeftStop>
	turn_90('L');
    17dc:	8c e4       	ldi	r24, 0x4C	; 76
    17de:	90 e0       	ldi	r25, 0x00	; 0
    17e0:	0e 94 14 0b 	call	0x1628	; 0x1628 <turn_90>
	forwardFindWallLeft();
    17e4:	0e 94 8c 0b 	call	0x1718	; 0x1718 <forwardFindWallLeft>
	forwardWallLeftStop();
    17e8:	0e 94 66 0b 	call	0x16cc	; 0x16cc <forwardWallLeftStop>
	turn_90('L');
    17ec:	8c e4       	ldi	r24, 0x4C	; 76
    17ee:	90 e0       	ldi	r25, 0x00	; 0
    17f0:	0e 94 14 0b 	call	0x1628	; 0x1628 <turn_90>
	forwardFindWallLeft();
    17f4:	0e 94 8c 0b 	call	0x1718	; 0x1718 <forwardFindWallLeft>
		
	parallelWall();
    17f8:	0e 94 b2 0b 	call	0x1764	; 0x1764 <parallelWall>
	turn_90('R');
    17fc:	82 e5       	ldi	r24, 0x52	; 82
    17fe:	90 e0       	ldi	r25, 0x00	; 0
    1800:	0e 94 14 0b 	call	0x1628	; 0x1628 <turn_90>
	parallelWall();	
    1804:	0e 94 b2 0b 	call	0x1764	; 0x1764 <parallelWall>
    1808:	08 95       	ret

0000180a <__subsf3>:
    180a:	50 58       	subi	r21, 0x80	; 128

0000180c <__addsf3>:
    180c:	bb 27       	eor	r27, r27
    180e:	aa 27       	eor	r26, r26
    1810:	0e 94 1d 0c 	call	0x183a	; 0x183a <__addsf3x>
    1814:	0c 94 fc 0c 	jmp	0x19f8	; 0x19f8 <__fp_round>
    1818:	0e 94 ee 0c 	call	0x19dc	; 0x19dc <__fp_pscA>
    181c:	38 f0       	brcs	.+14     	; 0x182c <__addsf3+0x20>
    181e:	0e 94 f5 0c 	call	0x19ea	; 0x19ea <__fp_pscB>
    1822:	20 f0       	brcs	.+8      	; 0x182c <__addsf3+0x20>
    1824:	39 f4       	brne	.+14     	; 0x1834 <__addsf3+0x28>
    1826:	9f 3f       	cpi	r25, 0xFF	; 255
    1828:	19 f4       	brne	.+6      	; 0x1830 <__addsf3+0x24>
    182a:	26 f4       	brtc	.+8      	; 0x1834 <__addsf3+0x28>
    182c:	0c 94 eb 0c 	jmp	0x19d6	; 0x19d6 <__fp_nan>
    1830:	0e f4       	brtc	.+2      	; 0x1834 <__addsf3+0x28>
    1832:	e0 95       	com	r30
    1834:	e7 fb       	bst	r30, 7
    1836:	0c 94 e5 0c 	jmp	0x19ca	; 0x19ca <__fp_inf>

0000183a <__addsf3x>:
    183a:	e9 2f       	mov	r30, r25
    183c:	0e 94 0d 0d 	call	0x1a1a	; 0x1a1a <__fp_split3>
    1840:	58 f3       	brcs	.-42     	; 0x1818 <__addsf3+0xc>
    1842:	ba 17       	cp	r27, r26
    1844:	62 07       	cpc	r22, r18
    1846:	73 07       	cpc	r23, r19
    1848:	84 07       	cpc	r24, r20
    184a:	95 07       	cpc	r25, r21
    184c:	20 f0       	brcs	.+8      	; 0x1856 <__addsf3x+0x1c>
    184e:	79 f4       	brne	.+30     	; 0x186e <__addsf3x+0x34>
    1850:	a6 f5       	brtc	.+104    	; 0x18ba <__addsf3x+0x80>
    1852:	0c 94 2f 0d 	jmp	0x1a5e	; 0x1a5e <__fp_zero>
    1856:	0e f4       	brtc	.+2      	; 0x185a <__addsf3x+0x20>
    1858:	e0 95       	com	r30
    185a:	0b 2e       	mov	r0, r27
    185c:	ba 2f       	mov	r27, r26
    185e:	a0 2d       	mov	r26, r0
    1860:	0b 01       	movw	r0, r22
    1862:	b9 01       	movw	r22, r18
    1864:	90 01       	movw	r18, r0
    1866:	0c 01       	movw	r0, r24
    1868:	ca 01       	movw	r24, r20
    186a:	a0 01       	movw	r20, r0
    186c:	11 24       	eor	r1, r1
    186e:	ff 27       	eor	r31, r31
    1870:	59 1b       	sub	r21, r25
    1872:	99 f0       	breq	.+38     	; 0x189a <__addsf3x+0x60>
    1874:	59 3f       	cpi	r21, 0xF9	; 249
    1876:	50 f4       	brcc	.+20     	; 0x188c <__addsf3x+0x52>
    1878:	50 3e       	cpi	r21, 0xE0	; 224
    187a:	68 f1       	brcs	.+90     	; 0x18d6 <__addsf3x+0x9c>
    187c:	1a 16       	cp	r1, r26
    187e:	f0 40       	sbci	r31, 0x00	; 0
    1880:	a2 2f       	mov	r26, r18
    1882:	23 2f       	mov	r18, r19
    1884:	34 2f       	mov	r19, r20
    1886:	44 27       	eor	r20, r20
    1888:	58 5f       	subi	r21, 0xF8	; 248
    188a:	f3 cf       	rjmp	.-26     	; 0x1872 <__addsf3x+0x38>
    188c:	46 95       	lsr	r20
    188e:	37 95       	ror	r19
    1890:	27 95       	ror	r18
    1892:	a7 95       	ror	r26
    1894:	f0 40       	sbci	r31, 0x00	; 0
    1896:	53 95       	inc	r21
    1898:	c9 f7       	brne	.-14     	; 0x188c <__addsf3x+0x52>
    189a:	7e f4       	brtc	.+30     	; 0x18ba <__addsf3x+0x80>
    189c:	1f 16       	cp	r1, r31
    189e:	ba 0b       	sbc	r27, r26
    18a0:	62 0b       	sbc	r22, r18
    18a2:	73 0b       	sbc	r23, r19
    18a4:	84 0b       	sbc	r24, r20
    18a6:	ba f0       	brmi	.+46     	; 0x18d6 <__addsf3x+0x9c>
    18a8:	91 50       	subi	r25, 0x01	; 1
    18aa:	a1 f0       	breq	.+40     	; 0x18d4 <__addsf3x+0x9a>
    18ac:	ff 0f       	add	r31, r31
    18ae:	bb 1f       	adc	r27, r27
    18b0:	66 1f       	adc	r22, r22
    18b2:	77 1f       	adc	r23, r23
    18b4:	88 1f       	adc	r24, r24
    18b6:	c2 f7       	brpl	.-16     	; 0x18a8 <__addsf3x+0x6e>
    18b8:	0e c0       	rjmp	.+28     	; 0x18d6 <__addsf3x+0x9c>
    18ba:	ba 0f       	add	r27, r26
    18bc:	62 1f       	adc	r22, r18
    18be:	73 1f       	adc	r23, r19
    18c0:	84 1f       	adc	r24, r20
    18c2:	48 f4       	brcc	.+18     	; 0x18d6 <__addsf3x+0x9c>
    18c4:	87 95       	ror	r24
    18c6:	77 95       	ror	r23
    18c8:	67 95       	ror	r22
    18ca:	b7 95       	ror	r27
    18cc:	f7 95       	ror	r31
    18ce:	9e 3f       	cpi	r25, 0xFE	; 254
    18d0:	08 f0       	brcs	.+2      	; 0x18d4 <__addsf3x+0x9a>
    18d2:	b0 cf       	rjmp	.-160    	; 0x1834 <__addsf3+0x28>
    18d4:	93 95       	inc	r25
    18d6:	88 0f       	add	r24, r24
    18d8:	08 f0       	brcs	.+2      	; 0x18dc <__addsf3x+0xa2>
    18da:	99 27       	eor	r25, r25
    18dc:	ee 0f       	add	r30, r30
    18de:	97 95       	ror	r25
    18e0:	87 95       	ror	r24
    18e2:	08 95       	ret

000018e4 <__fixsfsi>:
    18e4:	0e 94 79 0c 	call	0x18f2	; 0x18f2 <__fixunssfsi>
    18e8:	68 94       	set
    18ea:	b1 11       	cpse	r27, r1
    18ec:	0c 94 30 0d 	jmp	0x1a60	; 0x1a60 <__fp_szero>
    18f0:	08 95       	ret

000018f2 <__fixunssfsi>:
    18f2:	0e 94 15 0d 	call	0x1a2a	; 0x1a2a <__fp_splitA>
    18f6:	88 f0       	brcs	.+34     	; 0x191a <__fixunssfsi+0x28>
    18f8:	9f 57       	subi	r25, 0x7F	; 127
    18fa:	98 f0       	brcs	.+38     	; 0x1922 <__fixunssfsi+0x30>
    18fc:	b9 2f       	mov	r27, r25
    18fe:	99 27       	eor	r25, r25
    1900:	b7 51       	subi	r27, 0x17	; 23
    1902:	b0 f0       	brcs	.+44     	; 0x1930 <__fixunssfsi+0x3e>
    1904:	e1 f0       	breq	.+56     	; 0x193e <__fixunssfsi+0x4c>
    1906:	66 0f       	add	r22, r22
    1908:	77 1f       	adc	r23, r23
    190a:	88 1f       	adc	r24, r24
    190c:	99 1f       	adc	r25, r25
    190e:	1a f0       	brmi	.+6      	; 0x1916 <__fixunssfsi+0x24>
    1910:	ba 95       	dec	r27
    1912:	c9 f7       	brne	.-14     	; 0x1906 <__fixunssfsi+0x14>
    1914:	14 c0       	rjmp	.+40     	; 0x193e <__fixunssfsi+0x4c>
    1916:	b1 30       	cpi	r27, 0x01	; 1
    1918:	91 f0       	breq	.+36     	; 0x193e <__fixunssfsi+0x4c>
    191a:	0e 94 2f 0d 	call	0x1a5e	; 0x1a5e <__fp_zero>
    191e:	b1 e0       	ldi	r27, 0x01	; 1
    1920:	08 95       	ret
    1922:	0c 94 2f 0d 	jmp	0x1a5e	; 0x1a5e <__fp_zero>
    1926:	67 2f       	mov	r22, r23
    1928:	78 2f       	mov	r23, r24
    192a:	88 27       	eor	r24, r24
    192c:	b8 5f       	subi	r27, 0xF8	; 248
    192e:	39 f0       	breq	.+14     	; 0x193e <__fixunssfsi+0x4c>
    1930:	b9 3f       	cpi	r27, 0xF9	; 249
    1932:	cc f3       	brlt	.-14     	; 0x1926 <__fixunssfsi+0x34>
    1934:	86 95       	lsr	r24
    1936:	77 95       	ror	r23
    1938:	67 95       	ror	r22
    193a:	b3 95       	inc	r27
    193c:	d9 f7       	brne	.-10     	; 0x1934 <__fixunssfsi+0x42>
    193e:	3e f4       	brtc	.+14     	; 0x194e <__fixunssfsi+0x5c>
    1940:	90 95       	com	r25
    1942:	80 95       	com	r24
    1944:	70 95       	com	r23
    1946:	61 95       	neg	r22
    1948:	7f 4f       	sbci	r23, 0xFF	; 255
    194a:	8f 4f       	sbci	r24, 0xFF	; 255
    194c:	9f 4f       	sbci	r25, 0xFF	; 255
    194e:	08 95       	ret

00001950 <__floatunsisf>:
    1950:	e8 94       	clt
    1952:	09 c0       	rjmp	.+18     	; 0x1966 <__floatsisf+0x12>

00001954 <__floatsisf>:
    1954:	97 fb       	bst	r25, 7
    1956:	3e f4       	brtc	.+14     	; 0x1966 <__floatsisf+0x12>
    1958:	90 95       	com	r25
    195a:	80 95       	com	r24
    195c:	70 95       	com	r23
    195e:	61 95       	neg	r22
    1960:	7f 4f       	sbci	r23, 0xFF	; 255
    1962:	8f 4f       	sbci	r24, 0xFF	; 255
    1964:	9f 4f       	sbci	r25, 0xFF	; 255
    1966:	99 23       	and	r25, r25
    1968:	a9 f0       	breq	.+42     	; 0x1994 <__floatsisf+0x40>
    196a:	f9 2f       	mov	r31, r25
    196c:	96 e9       	ldi	r25, 0x96	; 150
    196e:	bb 27       	eor	r27, r27
    1970:	93 95       	inc	r25
    1972:	f6 95       	lsr	r31
    1974:	87 95       	ror	r24
    1976:	77 95       	ror	r23
    1978:	67 95       	ror	r22
    197a:	b7 95       	ror	r27
    197c:	f1 11       	cpse	r31, r1
    197e:	f8 cf       	rjmp	.-16     	; 0x1970 <__floatsisf+0x1c>
    1980:	fa f4       	brpl	.+62     	; 0x19c0 <__floatsisf+0x6c>
    1982:	bb 0f       	add	r27, r27
    1984:	11 f4       	brne	.+4      	; 0x198a <__floatsisf+0x36>
    1986:	60 ff       	sbrs	r22, 0
    1988:	1b c0       	rjmp	.+54     	; 0x19c0 <__floatsisf+0x6c>
    198a:	6f 5f       	subi	r22, 0xFF	; 255
    198c:	7f 4f       	sbci	r23, 0xFF	; 255
    198e:	8f 4f       	sbci	r24, 0xFF	; 255
    1990:	9f 4f       	sbci	r25, 0xFF	; 255
    1992:	16 c0       	rjmp	.+44     	; 0x19c0 <__floatsisf+0x6c>
    1994:	88 23       	and	r24, r24
    1996:	11 f0       	breq	.+4      	; 0x199c <__floatsisf+0x48>
    1998:	96 e9       	ldi	r25, 0x96	; 150
    199a:	11 c0       	rjmp	.+34     	; 0x19be <__floatsisf+0x6a>
    199c:	77 23       	and	r23, r23
    199e:	21 f0       	breq	.+8      	; 0x19a8 <__floatsisf+0x54>
    19a0:	9e e8       	ldi	r25, 0x8E	; 142
    19a2:	87 2f       	mov	r24, r23
    19a4:	76 2f       	mov	r23, r22
    19a6:	05 c0       	rjmp	.+10     	; 0x19b2 <__floatsisf+0x5e>
    19a8:	66 23       	and	r22, r22
    19aa:	71 f0       	breq	.+28     	; 0x19c8 <__floatsisf+0x74>
    19ac:	96 e8       	ldi	r25, 0x86	; 134
    19ae:	86 2f       	mov	r24, r22
    19b0:	70 e0       	ldi	r23, 0x00	; 0
    19b2:	60 e0       	ldi	r22, 0x00	; 0
    19b4:	2a f0       	brmi	.+10     	; 0x19c0 <__floatsisf+0x6c>
    19b6:	9a 95       	dec	r25
    19b8:	66 0f       	add	r22, r22
    19ba:	77 1f       	adc	r23, r23
    19bc:	88 1f       	adc	r24, r24
    19be:	da f7       	brpl	.-10     	; 0x19b6 <__floatsisf+0x62>
    19c0:	88 0f       	add	r24, r24
    19c2:	96 95       	lsr	r25
    19c4:	87 95       	ror	r24
    19c6:	97 f9       	bld	r25, 7
    19c8:	08 95       	ret

000019ca <__fp_inf>:
    19ca:	97 f9       	bld	r25, 7
    19cc:	9f 67       	ori	r25, 0x7F	; 127
    19ce:	80 e8       	ldi	r24, 0x80	; 128
    19d0:	70 e0       	ldi	r23, 0x00	; 0
    19d2:	60 e0       	ldi	r22, 0x00	; 0
    19d4:	08 95       	ret

000019d6 <__fp_nan>:
    19d6:	9f ef       	ldi	r25, 0xFF	; 255
    19d8:	80 ec       	ldi	r24, 0xC0	; 192
    19da:	08 95       	ret

000019dc <__fp_pscA>:
    19dc:	00 24       	eor	r0, r0
    19de:	0a 94       	dec	r0
    19e0:	16 16       	cp	r1, r22
    19e2:	17 06       	cpc	r1, r23
    19e4:	18 06       	cpc	r1, r24
    19e6:	09 06       	cpc	r0, r25
    19e8:	08 95       	ret

000019ea <__fp_pscB>:
    19ea:	00 24       	eor	r0, r0
    19ec:	0a 94       	dec	r0
    19ee:	12 16       	cp	r1, r18
    19f0:	13 06       	cpc	r1, r19
    19f2:	14 06       	cpc	r1, r20
    19f4:	05 06       	cpc	r0, r21
    19f6:	08 95       	ret

000019f8 <__fp_round>:
    19f8:	09 2e       	mov	r0, r25
    19fa:	03 94       	inc	r0
    19fc:	00 0c       	add	r0, r0
    19fe:	11 f4       	brne	.+4      	; 0x1a04 <__fp_round+0xc>
    1a00:	88 23       	and	r24, r24
    1a02:	52 f0       	brmi	.+20     	; 0x1a18 <__fp_round+0x20>
    1a04:	bb 0f       	add	r27, r27
    1a06:	40 f4       	brcc	.+16     	; 0x1a18 <__fp_round+0x20>
    1a08:	bf 2b       	or	r27, r31
    1a0a:	11 f4       	brne	.+4      	; 0x1a10 <__fp_round+0x18>
    1a0c:	60 ff       	sbrs	r22, 0
    1a0e:	04 c0       	rjmp	.+8      	; 0x1a18 <__fp_round+0x20>
    1a10:	6f 5f       	subi	r22, 0xFF	; 255
    1a12:	7f 4f       	sbci	r23, 0xFF	; 255
    1a14:	8f 4f       	sbci	r24, 0xFF	; 255
    1a16:	9f 4f       	sbci	r25, 0xFF	; 255
    1a18:	08 95       	ret

00001a1a <__fp_split3>:
    1a1a:	57 fd       	sbrc	r21, 7
    1a1c:	90 58       	subi	r25, 0x80	; 128
    1a1e:	44 0f       	add	r20, r20
    1a20:	55 1f       	adc	r21, r21
    1a22:	59 f0       	breq	.+22     	; 0x1a3a <__fp_splitA+0x10>
    1a24:	5f 3f       	cpi	r21, 0xFF	; 255
    1a26:	71 f0       	breq	.+28     	; 0x1a44 <__fp_splitA+0x1a>
    1a28:	47 95       	ror	r20

00001a2a <__fp_splitA>:
    1a2a:	88 0f       	add	r24, r24
    1a2c:	97 fb       	bst	r25, 7
    1a2e:	99 1f       	adc	r25, r25
    1a30:	61 f0       	breq	.+24     	; 0x1a4a <__fp_splitA+0x20>
    1a32:	9f 3f       	cpi	r25, 0xFF	; 255
    1a34:	79 f0       	breq	.+30     	; 0x1a54 <__fp_splitA+0x2a>
    1a36:	87 95       	ror	r24
    1a38:	08 95       	ret
    1a3a:	12 16       	cp	r1, r18
    1a3c:	13 06       	cpc	r1, r19
    1a3e:	14 06       	cpc	r1, r20
    1a40:	55 1f       	adc	r21, r21
    1a42:	f2 cf       	rjmp	.-28     	; 0x1a28 <__fp_split3+0xe>
    1a44:	46 95       	lsr	r20
    1a46:	f1 df       	rcall	.-30     	; 0x1a2a <__fp_splitA>
    1a48:	08 c0       	rjmp	.+16     	; 0x1a5a <__fp_splitA+0x30>
    1a4a:	16 16       	cp	r1, r22
    1a4c:	17 06       	cpc	r1, r23
    1a4e:	18 06       	cpc	r1, r24
    1a50:	99 1f       	adc	r25, r25
    1a52:	f1 cf       	rjmp	.-30     	; 0x1a36 <__fp_splitA+0xc>
    1a54:	86 95       	lsr	r24
    1a56:	71 05       	cpc	r23, r1
    1a58:	61 05       	cpc	r22, r1
    1a5a:	08 94       	sec
    1a5c:	08 95       	ret

00001a5e <__fp_zero>:
    1a5e:	e8 94       	clt

00001a60 <__fp_szero>:
    1a60:	bb 27       	eor	r27, r27
    1a62:	66 27       	eor	r22, r22
    1a64:	77 27       	eor	r23, r23
    1a66:	cb 01       	movw	r24, r22
    1a68:	97 f9       	bld	r25, 7
    1a6a:	08 95       	ret

00001a6c <__mulsf3>:
    1a6c:	0e 94 49 0d 	call	0x1a92	; 0x1a92 <__mulsf3x>
    1a70:	0c 94 fc 0c 	jmp	0x19f8	; 0x19f8 <__fp_round>
    1a74:	0e 94 ee 0c 	call	0x19dc	; 0x19dc <__fp_pscA>
    1a78:	38 f0       	brcs	.+14     	; 0x1a88 <__mulsf3+0x1c>
    1a7a:	0e 94 f5 0c 	call	0x19ea	; 0x19ea <__fp_pscB>
    1a7e:	20 f0       	brcs	.+8      	; 0x1a88 <__mulsf3+0x1c>
    1a80:	95 23       	and	r25, r21
    1a82:	11 f0       	breq	.+4      	; 0x1a88 <__mulsf3+0x1c>
    1a84:	0c 94 e5 0c 	jmp	0x19ca	; 0x19ca <__fp_inf>
    1a88:	0c 94 eb 0c 	jmp	0x19d6	; 0x19d6 <__fp_nan>
    1a8c:	11 24       	eor	r1, r1
    1a8e:	0c 94 30 0d 	jmp	0x1a60	; 0x1a60 <__fp_szero>

00001a92 <__mulsf3x>:
    1a92:	0e 94 0d 0d 	call	0x1a1a	; 0x1a1a <__fp_split3>
    1a96:	70 f3       	brcs	.-36     	; 0x1a74 <__mulsf3+0x8>

00001a98 <__mulsf3_pse>:
    1a98:	95 9f       	mul	r25, r21
    1a9a:	c1 f3       	breq	.-16     	; 0x1a8c <__mulsf3+0x20>
    1a9c:	95 0f       	add	r25, r21
    1a9e:	50 e0       	ldi	r21, 0x00	; 0
    1aa0:	55 1f       	adc	r21, r21
    1aa2:	62 9f       	mul	r22, r18
    1aa4:	f0 01       	movw	r30, r0
    1aa6:	72 9f       	mul	r23, r18
    1aa8:	bb 27       	eor	r27, r27
    1aaa:	f0 0d       	add	r31, r0
    1aac:	b1 1d       	adc	r27, r1
    1aae:	63 9f       	mul	r22, r19
    1ab0:	aa 27       	eor	r26, r26
    1ab2:	f0 0d       	add	r31, r0
    1ab4:	b1 1d       	adc	r27, r1
    1ab6:	aa 1f       	adc	r26, r26
    1ab8:	64 9f       	mul	r22, r20
    1aba:	66 27       	eor	r22, r22
    1abc:	b0 0d       	add	r27, r0
    1abe:	a1 1d       	adc	r26, r1
    1ac0:	66 1f       	adc	r22, r22
    1ac2:	82 9f       	mul	r24, r18
    1ac4:	22 27       	eor	r18, r18
    1ac6:	b0 0d       	add	r27, r0
    1ac8:	a1 1d       	adc	r26, r1
    1aca:	62 1f       	adc	r22, r18
    1acc:	73 9f       	mul	r23, r19
    1ace:	b0 0d       	add	r27, r0
    1ad0:	a1 1d       	adc	r26, r1
    1ad2:	62 1f       	adc	r22, r18
    1ad4:	83 9f       	mul	r24, r19
    1ad6:	a0 0d       	add	r26, r0
    1ad8:	61 1d       	adc	r22, r1
    1ada:	22 1f       	adc	r18, r18
    1adc:	74 9f       	mul	r23, r20
    1ade:	33 27       	eor	r19, r19
    1ae0:	a0 0d       	add	r26, r0
    1ae2:	61 1d       	adc	r22, r1
    1ae4:	23 1f       	adc	r18, r19
    1ae6:	84 9f       	mul	r24, r20
    1ae8:	60 0d       	add	r22, r0
    1aea:	21 1d       	adc	r18, r1
    1aec:	82 2f       	mov	r24, r18
    1aee:	76 2f       	mov	r23, r22
    1af0:	6a 2f       	mov	r22, r26
    1af2:	11 24       	eor	r1, r1
    1af4:	9f 57       	subi	r25, 0x7F	; 127
    1af6:	50 40       	sbci	r21, 0x00	; 0
    1af8:	9a f0       	brmi	.+38     	; 0x1b20 <__mulsf3_pse+0x88>
    1afa:	f1 f0       	breq	.+60     	; 0x1b38 <__mulsf3_pse+0xa0>
    1afc:	88 23       	and	r24, r24
    1afe:	4a f0       	brmi	.+18     	; 0x1b12 <__mulsf3_pse+0x7a>
    1b00:	ee 0f       	add	r30, r30
    1b02:	ff 1f       	adc	r31, r31
    1b04:	bb 1f       	adc	r27, r27
    1b06:	66 1f       	adc	r22, r22
    1b08:	77 1f       	adc	r23, r23
    1b0a:	88 1f       	adc	r24, r24
    1b0c:	91 50       	subi	r25, 0x01	; 1
    1b0e:	50 40       	sbci	r21, 0x00	; 0
    1b10:	a9 f7       	brne	.-22     	; 0x1afc <__mulsf3_pse+0x64>
    1b12:	9e 3f       	cpi	r25, 0xFE	; 254
    1b14:	51 05       	cpc	r21, r1
    1b16:	80 f0       	brcs	.+32     	; 0x1b38 <__mulsf3_pse+0xa0>
    1b18:	0c 94 e5 0c 	jmp	0x19ca	; 0x19ca <__fp_inf>
    1b1c:	0c 94 30 0d 	jmp	0x1a60	; 0x1a60 <__fp_szero>
    1b20:	5f 3f       	cpi	r21, 0xFF	; 255
    1b22:	e4 f3       	brlt	.-8      	; 0x1b1c <__mulsf3_pse+0x84>
    1b24:	98 3e       	cpi	r25, 0xE8	; 232
    1b26:	d4 f3       	brlt	.-12     	; 0x1b1c <__mulsf3_pse+0x84>
    1b28:	86 95       	lsr	r24
    1b2a:	77 95       	ror	r23
    1b2c:	67 95       	ror	r22
    1b2e:	b7 95       	ror	r27
    1b30:	f7 95       	ror	r31
    1b32:	e7 95       	ror	r30
    1b34:	9f 5f       	subi	r25, 0xFF	; 255
    1b36:	c1 f7       	brne	.-16     	; 0x1b28 <__mulsf3_pse+0x90>
    1b38:	fe 2b       	or	r31, r30
    1b3a:	88 0f       	add	r24, r24
    1b3c:	91 1d       	adc	r25, r1
    1b3e:	96 95       	lsr	r25
    1b40:	87 95       	ror	r24
    1b42:	97 f9       	bld	r25, 7
    1b44:	08 95       	ret

00001b46 <__tablejump2__>:
    1b46:	ee 0f       	add	r30, r30
    1b48:	ff 1f       	adc	r31, r31
    1b4a:	05 90       	lpm	r0, Z+
    1b4c:	f4 91       	lpm	r31, Z
    1b4e:	e0 2d       	mov	r30, r0
    1b50:	09 94       	ijmp

00001b52 <sprintf>:
    1b52:	ae e0       	ldi	r26, 0x0E	; 14
    1b54:	b0 e0       	ldi	r27, 0x00	; 0
    1b56:	ef ea       	ldi	r30, 0xAF	; 175
    1b58:	fd e0       	ldi	r31, 0x0D	; 13
    1b5a:	0c 94 58 10 	jmp	0x20b0	; 0x20b0 <__prologue_saves__+0x1c>
    1b5e:	0d 89       	ldd	r16, Y+21	; 0x15
    1b60:	1e 89       	ldd	r17, Y+22	; 0x16
    1b62:	86 e0       	ldi	r24, 0x06	; 6
    1b64:	8c 83       	std	Y+4, r24	; 0x04
    1b66:	1a 83       	std	Y+2, r17	; 0x02
    1b68:	09 83       	std	Y+1, r16	; 0x01
    1b6a:	8f ef       	ldi	r24, 0xFF	; 255
    1b6c:	9f e7       	ldi	r25, 0x7F	; 127
    1b6e:	9e 83       	std	Y+6, r25	; 0x06
    1b70:	8d 83       	std	Y+5, r24	; 0x05
    1b72:	ae 01       	movw	r20, r28
    1b74:	47 5e       	subi	r20, 0xE7	; 231
    1b76:	5f 4f       	sbci	r21, 0xFF	; 255
    1b78:	6f 89       	ldd	r22, Y+23	; 0x17
    1b7a:	78 8d       	ldd	r23, Y+24	; 0x18
    1b7c:	ce 01       	movw	r24, r28
    1b7e:	01 96       	adiw	r24, 0x01	; 1
    1b80:	0e 94 cc 0d 	call	0x1b98	; 0x1b98 <vfprintf>
    1b84:	2f 81       	ldd	r18, Y+7	; 0x07
    1b86:	38 85       	ldd	r19, Y+8	; 0x08
    1b88:	f8 01       	movw	r30, r16
    1b8a:	e2 0f       	add	r30, r18
    1b8c:	f3 1f       	adc	r31, r19
    1b8e:	10 82       	st	Z, r1
    1b90:	2e 96       	adiw	r28, 0x0e	; 14
    1b92:	e4 e0       	ldi	r30, 0x04	; 4
    1b94:	0c 94 74 10 	jmp	0x20e8	; 0x20e8 <__epilogue_restores__+0x1c>

00001b98 <vfprintf>:
    1b98:	ac e0       	ldi	r26, 0x0C	; 12
    1b9a:	b0 e0       	ldi	r27, 0x00	; 0
    1b9c:	e2 ed       	ldi	r30, 0xD2	; 210
    1b9e:	fd e0       	ldi	r31, 0x0D	; 13
    1ba0:	0c 94 4a 10 	jmp	0x2094	; 0x2094 <__prologue_saves__>
    1ba4:	7c 01       	movw	r14, r24
    1ba6:	6b 01       	movw	r12, r22
    1ba8:	8a 01       	movw	r16, r20
    1baa:	fc 01       	movw	r30, r24
    1bac:	17 82       	std	Z+7, r1	; 0x07
    1bae:	16 82       	std	Z+6, r1	; 0x06
    1bb0:	83 81       	ldd	r24, Z+3	; 0x03
    1bb2:	81 ff       	sbrs	r24, 1
    1bb4:	bd c1       	rjmp	.+890    	; 0x1f30 <vfprintf+0x398>
    1bb6:	ce 01       	movw	r24, r28
    1bb8:	01 96       	adiw	r24, 0x01	; 1
    1bba:	4c 01       	movw	r8, r24
    1bbc:	f7 01       	movw	r30, r14
    1bbe:	93 81       	ldd	r25, Z+3	; 0x03
    1bc0:	f6 01       	movw	r30, r12
    1bc2:	93 fd       	sbrc	r25, 3
    1bc4:	85 91       	lpm	r24, Z+
    1bc6:	93 ff       	sbrs	r25, 3
    1bc8:	81 91       	ld	r24, Z+
    1bca:	6f 01       	movw	r12, r30
    1bcc:	88 23       	and	r24, r24
    1bce:	09 f4       	brne	.+2      	; 0x1bd2 <vfprintf+0x3a>
    1bd0:	ab c1       	rjmp	.+854    	; 0x1f28 <vfprintf+0x390>
    1bd2:	85 32       	cpi	r24, 0x25	; 37
    1bd4:	39 f4       	brne	.+14     	; 0x1be4 <vfprintf+0x4c>
    1bd6:	93 fd       	sbrc	r25, 3
    1bd8:	85 91       	lpm	r24, Z+
    1bda:	93 ff       	sbrs	r25, 3
    1bdc:	81 91       	ld	r24, Z+
    1bde:	6f 01       	movw	r12, r30
    1be0:	85 32       	cpi	r24, 0x25	; 37
    1be2:	29 f4       	brne	.+10     	; 0x1bee <vfprintf+0x56>
    1be4:	b7 01       	movw	r22, r14
    1be6:	90 e0       	ldi	r25, 0x00	; 0
    1be8:	0e 94 b4 0f 	call	0x1f68	; 0x1f68 <fputc>
    1bec:	e7 cf       	rjmp	.-50     	; 0x1bbc <vfprintf+0x24>
    1bee:	51 2c       	mov	r5, r1
    1bf0:	31 2c       	mov	r3, r1
    1bf2:	20 e0       	ldi	r18, 0x00	; 0
    1bf4:	20 32       	cpi	r18, 0x20	; 32
    1bf6:	a0 f4       	brcc	.+40     	; 0x1c20 <vfprintf+0x88>
    1bf8:	8b 32       	cpi	r24, 0x2B	; 43
    1bfa:	69 f0       	breq	.+26     	; 0x1c16 <vfprintf+0x7e>
    1bfc:	30 f4       	brcc	.+12     	; 0x1c0a <vfprintf+0x72>
    1bfe:	80 32       	cpi	r24, 0x20	; 32
    1c00:	59 f0       	breq	.+22     	; 0x1c18 <vfprintf+0x80>
    1c02:	83 32       	cpi	r24, 0x23	; 35
    1c04:	69 f4       	brne	.+26     	; 0x1c20 <vfprintf+0x88>
    1c06:	20 61       	ori	r18, 0x10	; 16
    1c08:	2c c0       	rjmp	.+88     	; 0x1c62 <vfprintf+0xca>
    1c0a:	8d 32       	cpi	r24, 0x2D	; 45
    1c0c:	39 f0       	breq	.+14     	; 0x1c1c <vfprintf+0x84>
    1c0e:	80 33       	cpi	r24, 0x30	; 48
    1c10:	39 f4       	brne	.+14     	; 0x1c20 <vfprintf+0x88>
    1c12:	21 60       	ori	r18, 0x01	; 1
    1c14:	26 c0       	rjmp	.+76     	; 0x1c62 <vfprintf+0xca>
    1c16:	22 60       	ori	r18, 0x02	; 2
    1c18:	24 60       	ori	r18, 0x04	; 4
    1c1a:	23 c0       	rjmp	.+70     	; 0x1c62 <vfprintf+0xca>
    1c1c:	28 60       	ori	r18, 0x08	; 8
    1c1e:	21 c0       	rjmp	.+66     	; 0x1c62 <vfprintf+0xca>
    1c20:	27 fd       	sbrc	r18, 7
    1c22:	27 c0       	rjmp	.+78     	; 0x1c72 <vfprintf+0xda>
    1c24:	30 ed       	ldi	r19, 0xD0	; 208
    1c26:	38 0f       	add	r19, r24
    1c28:	3a 30       	cpi	r19, 0x0A	; 10
    1c2a:	78 f4       	brcc	.+30     	; 0x1c4a <vfprintf+0xb2>
    1c2c:	26 ff       	sbrs	r18, 6
    1c2e:	06 c0       	rjmp	.+12     	; 0x1c3c <vfprintf+0xa4>
    1c30:	fa e0       	ldi	r31, 0x0A	; 10
    1c32:	5f 9e       	mul	r5, r31
    1c34:	30 0d       	add	r19, r0
    1c36:	11 24       	eor	r1, r1
    1c38:	53 2e       	mov	r5, r19
    1c3a:	13 c0       	rjmp	.+38     	; 0x1c62 <vfprintf+0xca>
    1c3c:	8a e0       	ldi	r24, 0x0A	; 10
    1c3e:	38 9e       	mul	r3, r24
    1c40:	30 0d       	add	r19, r0
    1c42:	11 24       	eor	r1, r1
    1c44:	33 2e       	mov	r3, r19
    1c46:	20 62       	ori	r18, 0x20	; 32
    1c48:	0c c0       	rjmp	.+24     	; 0x1c62 <vfprintf+0xca>
    1c4a:	8e 32       	cpi	r24, 0x2E	; 46
    1c4c:	21 f4       	brne	.+8      	; 0x1c56 <vfprintf+0xbe>
    1c4e:	26 fd       	sbrc	r18, 6
    1c50:	6b c1       	rjmp	.+726    	; 0x1f28 <vfprintf+0x390>
    1c52:	20 64       	ori	r18, 0x40	; 64
    1c54:	06 c0       	rjmp	.+12     	; 0x1c62 <vfprintf+0xca>
    1c56:	8c 36       	cpi	r24, 0x6C	; 108
    1c58:	11 f4       	brne	.+4      	; 0x1c5e <vfprintf+0xc6>
    1c5a:	20 68       	ori	r18, 0x80	; 128
    1c5c:	02 c0       	rjmp	.+4      	; 0x1c62 <vfprintf+0xca>
    1c5e:	88 36       	cpi	r24, 0x68	; 104
    1c60:	41 f4       	brne	.+16     	; 0x1c72 <vfprintf+0xda>
    1c62:	f6 01       	movw	r30, r12
    1c64:	93 fd       	sbrc	r25, 3
    1c66:	85 91       	lpm	r24, Z+
    1c68:	93 ff       	sbrs	r25, 3
    1c6a:	81 91       	ld	r24, Z+
    1c6c:	6f 01       	movw	r12, r30
    1c6e:	81 11       	cpse	r24, r1
    1c70:	c1 cf       	rjmp	.-126    	; 0x1bf4 <vfprintf+0x5c>
    1c72:	98 2f       	mov	r25, r24
    1c74:	9f 7d       	andi	r25, 0xDF	; 223
    1c76:	95 54       	subi	r25, 0x45	; 69
    1c78:	93 30       	cpi	r25, 0x03	; 3
    1c7a:	28 f4       	brcc	.+10     	; 0x1c86 <vfprintf+0xee>
    1c7c:	0c 5f       	subi	r16, 0xFC	; 252
    1c7e:	1f 4f       	sbci	r17, 0xFF	; 255
    1c80:	ff e3       	ldi	r31, 0x3F	; 63
    1c82:	f9 83       	std	Y+1, r31	; 0x01
    1c84:	0d c0       	rjmp	.+26     	; 0x1ca0 <vfprintf+0x108>
    1c86:	83 36       	cpi	r24, 0x63	; 99
    1c88:	31 f0       	breq	.+12     	; 0x1c96 <vfprintf+0xfe>
    1c8a:	83 37       	cpi	r24, 0x73	; 115
    1c8c:	71 f0       	breq	.+28     	; 0x1caa <vfprintf+0x112>
    1c8e:	83 35       	cpi	r24, 0x53	; 83
    1c90:	09 f0       	breq	.+2      	; 0x1c94 <vfprintf+0xfc>
    1c92:	5b c0       	rjmp	.+182    	; 0x1d4a <vfprintf+0x1b2>
    1c94:	22 c0       	rjmp	.+68     	; 0x1cda <vfprintf+0x142>
    1c96:	f8 01       	movw	r30, r16
    1c98:	80 81       	ld	r24, Z
    1c9a:	89 83       	std	Y+1, r24	; 0x01
    1c9c:	0e 5f       	subi	r16, 0xFE	; 254
    1c9e:	1f 4f       	sbci	r17, 0xFF	; 255
    1ca0:	44 24       	eor	r4, r4
    1ca2:	43 94       	inc	r4
    1ca4:	51 2c       	mov	r5, r1
    1ca6:	54 01       	movw	r10, r8
    1ca8:	15 c0       	rjmp	.+42     	; 0x1cd4 <vfprintf+0x13c>
    1caa:	38 01       	movw	r6, r16
    1cac:	f2 e0       	ldi	r31, 0x02	; 2
    1cae:	6f 0e       	add	r6, r31
    1cb0:	71 1c       	adc	r7, r1
    1cb2:	f8 01       	movw	r30, r16
    1cb4:	a0 80       	ld	r10, Z
    1cb6:	b1 80       	ldd	r11, Z+1	; 0x01
    1cb8:	26 ff       	sbrs	r18, 6
    1cba:	03 c0       	rjmp	.+6      	; 0x1cc2 <vfprintf+0x12a>
    1cbc:	65 2d       	mov	r22, r5
    1cbe:	70 e0       	ldi	r23, 0x00	; 0
    1cc0:	02 c0       	rjmp	.+4      	; 0x1cc6 <vfprintf+0x12e>
    1cc2:	6f ef       	ldi	r22, 0xFF	; 255
    1cc4:	7f ef       	ldi	r23, 0xFF	; 255
    1cc6:	c5 01       	movw	r24, r10
    1cc8:	2c 87       	std	Y+12, r18	; 0x0c
    1cca:	0e 94 a9 0f 	call	0x1f52	; 0x1f52 <strnlen>
    1cce:	2c 01       	movw	r4, r24
    1cd0:	83 01       	movw	r16, r6
    1cd2:	2c 85       	ldd	r18, Y+12	; 0x0c
    1cd4:	2f 77       	andi	r18, 0x7F	; 127
    1cd6:	22 2e       	mov	r2, r18
    1cd8:	17 c0       	rjmp	.+46     	; 0x1d08 <vfprintf+0x170>
    1cda:	38 01       	movw	r6, r16
    1cdc:	f2 e0       	ldi	r31, 0x02	; 2
    1cde:	6f 0e       	add	r6, r31
    1ce0:	71 1c       	adc	r7, r1
    1ce2:	f8 01       	movw	r30, r16
    1ce4:	a0 80       	ld	r10, Z
    1ce6:	b1 80       	ldd	r11, Z+1	; 0x01
    1ce8:	26 ff       	sbrs	r18, 6
    1cea:	03 c0       	rjmp	.+6      	; 0x1cf2 <vfprintf+0x15a>
    1cec:	65 2d       	mov	r22, r5
    1cee:	70 e0       	ldi	r23, 0x00	; 0
    1cf0:	02 c0       	rjmp	.+4      	; 0x1cf6 <vfprintf+0x15e>
    1cf2:	6f ef       	ldi	r22, 0xFF	; 255
    1cf4:	7f ef       	ldi	r23, 0xFF	; 255
    1cf6:	c5 01       	movw	r24, r10
    1cf8:	2c 87       	std	Y+12, r18	; 0x0c
    1cfa:	0e 94 9e 0f 	call	0x1f3c	; 0x1f3c <strnlen_P>
    1cfe:	2c 01       	movw	r4, r24
    1d00:	2c 85       	ldd	r18, Y+12	; 0x0c
    1d02:	20 68       	ori	r18, 0x80	; 128
    1d04:	22 2e       	mov	r2, r18
    1d06:	83 01       	movw	r16, r6
    1d08:	23 fc       	sbrc	r2, 3
    1d0a:	1b c0       	rjmp	.+54     	; 0x1d42 <vfprintf+0x1aa>
    1d0c:	83 2d       	mov	r24, r3
    1d0e:	90 e0       	ldi	r25, 0x00	; 0
    1d10:	48 16       	cp	r4, r24
    1d12:	59 06       	cpc	r5, r25
    1d14:	b0 f4       	brcc	.+44     	; 0x1d42 <vfprintf+0x1aa>
    1d16:	b7 01       	movw	r22, r14
    1d18:	80 e2       	ldi	r24, 0x20	; 32
    1d1a:	90 e0       	ldi	r25, 0x00	; 0
    1d1c:	0e 94 b4 0f 	call	0x1f68	; 0x1f68 <fputc>
    1d20:	3a 94       	dec	r3
    1d22:	f4 cf       	rjmp	.-24     	; 0x1d0c <vfprintf+0x174>
    1d24:	f5 01       	movw	r30, r10
    1d26:	27 fc       	sbrc	r2, 7
    1d28:	85 91       	lpm	r24, Z+
    1d2a:	27 fe       	sbrs	r2, 7
    1d2c:	81 91       	ld	r24, Z+
    1d2e:	5f 01       	movw	r10, r30
    1d30:	b7 01       	movw	r22, r14
    1d32:	90 e0       	ldi	r25, 0x00	; 0
    1d34:	0e 94 b4 0f 	call	0x1f68	; 0x1f68 <fputc>
    1d38:	31 10       	cpse	r3, r1
    1d3a:	3a 94       	dec	r3
    1d3c:	f1 e0       	ldi	r31, 0x01	; 1
    1d3e:	4f 1a       	sub	r4, r31
    1d40:	51 08       	sbc	r5, r1
    1d42:	41 14       	cp	r4, r1
    1d44:	51 04       	cpc	r5, r1
    1d46:	71 f7       	brne	.-36     	; 0x1d24 <vfprintf+0x18c>
    1d48:	e5 c0       	rjmp	.+458    	; 0x1f14 <vfprintf+0x37c>
    1d4a:	84 36       	cpi	r24, 0x64	; 100
    1d4c:	11 f0       	breq	.+4      	; 0x1d52 <vfprintf+0x1ba>
    1d4e:	89 36       	cpi	r24, 0x69	; 105
    1d50:	39 f5       	brne	.+78     	; 0x1da0 <vfprintf+0x208>
    1d52:	f8 01       	movw	r30, r16
    1d54:	27 ff       	sbrs	r18, 7
    1d56:	07 c0       	rjmp	.+14     	; 0x1d66 <vfprintf+0x1ce>
    1d58:	60 81       	ld	r22, Z
    1d5a:	71 81       	ldd	r23, Z+1	; 0x01
    1d5c:	82 81       	ldd	r24, Z+2	; 0x02
    1d5e:	93 81       	ldd	r25, Z+3	; 0x03
    1d60:	0c 5f       	subi	r16, 0xFC	; 252
    1d62:	1f 4f       	sbci	r17, 0xFF	; 255
    1d64:	08 c0       	rjmp	.+16     	; 0x1d76 <vfprintf+0x1de>
    1d66:	60 81       	ld	r22, Z
    1d68:	71 81       	ldd	r23, Z+1	; 0x01
    1d6a:	07 2e       	mov	r0, r23
    1d6c:	00 0c       	add	r0, r0
    1d6e:	88 0b       	sbc	r24, r24
    1d70:	99 0b       	sbc	r25, r25
    1d72:	0e 5f       	subi	r16, 0xFE	; 254
    1d74:	1f 4f       	sbci	r17, 0xFF	; 255
    1d76:	2f 76       	andi	r18, 0x6F	; 111
    1d78:	72 2e       	mov	r7, r18
    1d7a:	97 ff       	sbrs	r25, 7
    1d7c:	09 c0       	rjmp	.+18     	; 0x1d90 <vfprintf+0x1f8>
    1d7e:	90 95       	com	r25
    1d80:	80 95       	com	r24
    1d82:	70 95       	com	r23
    1d84:	61 95       	neg	r22
    1d86:	7f 4f       	sbci	r23, 0xFF	; 255
    1d88:	8f 4f       	sbci	r24, 0xFF	; 255
    1d8a:	9f 4f       	sbci	r25, 0xFF	; 255
    1d8c:	20 68       	ori	r18, 0x80	; 128
    1d8e:	72 2e       	mov	r7, r18
    1d90:	2a e0       	ldi	r18, 0x0A	; 10
    1d92:	30 e0       	ldi	r19, 0x00	; 0
    1d94:	a4 01       	movw	r20, r8
    1d96:	0e 94 ec 0f 	call	0x1fd8	; 0x1fd8 <__ultoa_invert>
    1d9a:	a8 2e       	mov	r10, r24
    1d9c:	a8 18       	sub	r10, r8
    1d9e:	44 c0       	rjmp	.+136    	; 0x1e28 <vfprintf+0x290>
    1da0:	85 37       	cpi	r24, 0x75	; 117
    1da2:	29 f4       	brne	.+10     	; 0x1dae <vfprintf+0x216>
    1da4:	2f 7e       	andi	r18, 0xEF	; 239
    1da6:	b2 2e       	mov	r11, r18
    1da8:	2a e0       	ldi	r18, 0x0A	; 10
    1daa:	30 e0       	ldi	r19, 0x00	; 0
    1dac:	25 c0       	rjmp	.+74     	; 0x1df8 <vfprintf+0x260>
    1dae:	f2 2f       	mov	r31, r18
    1db0:	f9 7f       	andi	r31, 0xF9	; 249
    1db2:	bf 2e       	mov	r11, r31
    1db4:	8f 36       	cpi	r24, 0x6F	; 111
    1db6:	c1 f0       	breq	.+48     	; 0x1de8 <vfprintf+0x250>
    1db8:	18 f4       	brcc	.+6      	; 0x1dc0 <vfprintf+0x228>
    1dba:	88 35       	cpi	r24, 0x58	; 88
    1dbc:	79 f0       	breq	.+30     	; 0x1ddc <vfprintf+0x244>
    1dbe:	b4 c0       	rjmp	.+360    	; 0x1f28 <vfprintf+0x390>
    1dc0:	80 37       	cpi	r24, 0x70	; 112
    1dc2:	19 f0       	breq	.+6      	; 0x1dca <vfprintf+0x232>
    1dc4:	88 37       	cpi	r24, 0x78	; 120
    1dc6:	21 f0       	breq	.+8      	; 0x1dd0 <vfprintf+0x238>
    1dc8:	af c0       	rjmp	.+350    	; 0x1f28 <vfprintf+0x390>
    1dca:	2f 2f       	mov	r18, r31
    1dcc:	20 61       	ori	r18, 0x10	; 16
    1dce:	b2 2e       	mov	r11, r18
    1dd0:	b4 fe       	sbrs	r11, 4
    1dd2:	0d c0       	rjmp	.+26     	; 0x1dee <vfprintf+0x256>
    1dd4:	8b 2d       	mov	r24, r11
    1dd6:	84 60       	ori	r24, 0x04	; 4
    1dd8:	b8 2e       	mov	r11, r24
    1dda:	09 c0       	rjmp	.+18     	; 0x1dee <vfprintf+0x256>
    1ddc:	24 ff       	sbrs	r18, 4
    1dde:	0a c0       	rjmp	.+20     	; 0x1df4 <vfprintf+0x25c>
    1de0:	9f 2f       	mov	r25, r31
    1de2:	96 60       	ori	r25, 0x06	; 6
    1de4:	b9 2e       	mov	r11, r25
    1de6:	06 c0       	rjmp	.+12     	; 0x1df4 <vfprintf+0x25c>
    1de8:	28 e0       	ldi	r18, 0x08	; 8
    1dea:	30 e0       	ldi	r19, 0x00	; 0
    1dec:	05 c0       	rjmp	.+10     	; 0x1df8 <vfprintf+0x260>
    1dee:	20 e1       	ldi	r18, 0x10	; 16
    1df0:	30 e0       	ldi	r19, 0x00	; 0
    1df2:	02 c0       	rjmp	.+4      	; 0x1df8 <vfprintf+0x260>
    1df4:	20 e1       	ldi	r18, 0x10	; 16
    1df6:	32 e0       	ldi	r19, 0x02	; 2
    1df8:	f8 01       	movw	r30, r16
    1dfa:	b7 fe       	sbrs	r11, 7
    1dfc:	07 c0       	rjmp	.+14     	; 0x1e0c <vfprintf+0x274>
    1dfe:	60 81       	ld	r22, Z
    1e00:	71 81       	ldd	r23, Z+1	; 0x01
    1e02:	82 81       	ldd	r24, Z+2	; 0x02
    1e04:	93 81       	ldd	r25, Z+3	; 0x03
    1e06:	0c 5f       	subi	r16, 0xFC	; 252
    1e08:	1f 4f       	sbci	r17, 0xFF	; 255
    1e0a:	06 c0       	rjmp	.+12     	; 0x1e18 <vfprintf+0x280>
    1e0c:	60 81       	ld	r22, Z
    1e0e:	71 81       	ldd	r23, Z+1	; 0x01
    1e10:	80 e0       	ldi	r24, 0x00	; 0
    1e12:	90 e0       	ldi	r25, 0x00	; 0
    1e14:	0e 5f       	subi	r16, 0xFE	; 254
    1e16:	1f 4f       	sbci	r17, 0xFF	; 255
    1e18:	a4 01       	movw	r20, r8
    1e1a:	0e 94 ec 0f 	call	0x1fd8	; 0x1fd8 <__ultoa_invert>
    1e1e:	a8 2e       	mov	r10, r24
    1e20:	a8 18       	sub	r10, r8
    1e22:	fb 2d       	mov	r31, r11
    1e24:	ff 77       	andi	r31, 0x7F	; 127
    1e26:	7f 2e       	mov	r7, r31
    1e28:	76 fe       	sbrs	r7, 6
    1e2a:	0b c0       	rjmp	.+22     	; 0x1e42 <vfprintf+0x2aa>
    1e2c:	37 2d       	mov	r19, r7
    1e2e:	3e 7f       	andi	r19, 0xFE	; 254
    1e30:	a5 14       	cp	r10, r5
    1e32:	50 f4       	brcc	.+20     	; 0x1e48 <vfprintf+0x2b0>
    1e34:	74 fe       	sbrs	r7, 4
    1e36:	0a c0       	rjmp	.+20     	; 0x1e4c <vfprintf+0x2b4>
    1e38:	72 fc       	sbrc	r7, 2
    1e3a:	08 c0       	rjmp	.+16     	; 0x1e4c <vfprintf+0x2b4>
    1e3c:	37 2d       	mov	r19, r7
    1e3e:	3e 7e       	andi	r19, 0xEE	; 238
    1e40:	05 c0       	rjmp	.+10     	; 0x1e4c <vfprintf+0x2b4>
    1e42:	ba 2c       	mov	r11, r10
    1e44:	37 2d       	mov	r19, r7
    1e46:	03 c0       	rjmp	.+6      	; 0x1e4e <vfprintf+0x2b6>
    1e48:	ba 2c       	mov	r11, r10
    1e4a:	01 c0       	rjmp	.+2      	; 0x1e4e <vfprintf+0x2b6>
    1e4c:	b5 2c       	mov	r11, r5
    1e4e:	34 ff       	sbrs	r19, 4
    1e50:	0d c0       	rjmp	.+26     	; 0x1e6c <vfprintf+0x2d4>
    1e52:	fe 01       	movw	r30, r28
    1e54:	ea 0d       	add	r30, r10
    1e56:	f1 1d       	adc	r31, r1
    1e58:	80 81       	ld	r24, Z
    1e5a:	80 33       	cpi	r24, 0x30	; 48
    1e5c:	11 f4       	brne	.+4      	; 0x1e62 <vfprintf+0x2ca>
    1e5e:	39 7e       	andi	r19, 0xE9	; 233
    1e60:	09 c0       	rjmp	.+18     	; 0x1e74 <vfprintf+0x2dc>
    1e62:	32 ff       	sbrs	r19, 2
    1e64:	06 c0       	rjmp	.+12     	; 0x1e72 <vfprintf+0x2da>
    1e66:	b3 94       	inc	r11
    1e68:	b3 94       	inc	r11
    1e6a:	04 c0       	rjmp	.+8      	; 0x1e74 <vfprintf+0x2dc>
    1e6c:	83 2f       	mov	r24, r19
    1e6e:	86 78       	andi	r24, 0x86	; 134
    1e70:	09 f0       	breq	.+2      	; 0x1e74 <vfprintf+0x2dc>
    1e72:	b3 94       	inc	r11
    1e74:	33 fd       	sbrc	r19, 3
    1e76:	13 c0       	rjmp	.+38     	; 0x1e9e <vfprintf+0x306>
    1e78:	30 ff       	sbrs	r19, 0
    1e7a:	06 c0       	rjmp	.+12     	; 0x1e88 <vfprintf+0x2f0>
    1e7c:	5a 2c       	mov	r5, r10
    1e7e:	b3 14       	cp	r11, r3
    1e80:	18 f4       	brcc	.+6      	; 0x1e88 <vfprintf+0x2f0>
    1e82:	53 0c       	add	r5, r3
    1e84:	5b 18       	sub	r5, r11
    1e86:	b3 2c       	mov	r11, r3
    1e88:	b3 14       	cp	r11, r3
    1e8a:	68 f4       	brcc	.+26     	; 0x1ea6 <vfprintf+0x30e>
    1e8c:	b7 01       	movw	r22, r14
    1e8e:	80 e2       	ldi	r24, 0x20	; 32
    1e90:	90 e0       	ldi	r25, 0x00	; 0
    1e92:	3c 87       	std	Y+12, r19	; 0x0c
    1e94:	0e 94 b4 0f 	call	0x1f68	; 0x1f68 <fputc>
    1e98:	b3 94       	inc	r11
    1e9a:	3c 85       	ldd	r19, Y+12	; 0x0c
    1e9c:	f5 cf       	rjmp	.-22     	; 0x1e88 <vfprintf+0x2f0>
    1e9e:	b3 14       	cp	r11, r3
    1ea0:	10 f4       	brcc	.+4      	; 0x1ea6 <vfprintf+0x30e>
    1ea2:	3b 18       	sub	r3, r11
    1ea4:	01 c0       	rjmp	.+2      	; 0x1ea8 <vfprintf+0x310>
    1ea6:	31 2c       	mov	r3, r1
    1ea8:	34 ff       	sbrs	r19, 4
    1eaa:	12 c0       	rjmp	.+36     	; 0x1ed0 <vfprintf+0x338>
    1eac:	b7 01       	movw	r22, r14
    1eae:	80 e3       	ldi	r24, 0x30	; 48
    1eb0:	90 e0       	ldi	r25, 0x00	; 0
    1eb2:	3c 87       	std	Y+12, r19	; 0x0c
    1eb4:	0e 94 b4 0f 	call	0x1f68	; 0x1f68 <fputc>
    1eb8:	3c 85       	ldd	r19, Y+12	; 0x0c
    1eba:	32 ff       	sbrs	r19, 2
    1ebc:	17 c0       	rjmp	.+46     	; 0x1eec <vfprintf+0x354>
    1ebe:	31 fd       	sbrc	r19, 1
    1ec0:	03 c0       	rjmp	.+6      	; 0x1ec8 <vfprintf+0x330>
    1ec2:	88 e7       	ldi	r24, 0x78	; 120
    1ec4:	90 e0       	ldi	r25, 0x00	; 0
    1ec6:	02 c0       	rjmp	.+4      	; 0x1ecc <vfprintf+0x334>
    1ec8:	88 e5       	ldi	r24, 0x58	; 88
    1eca:	90 e0       	ldi	r25, 0x00	; 0
    1ecc:	b7 01       	movw	r22, r14
    1ece:	0c c0       	rjmp	.+24     	; 0x1ee8 <vfprintf+0x350>
    1ed0:	83 2f       	mov	r24, r19
    1ed2:	86 78       	andi	r24, 0x86	; 134
    1ed4:	59 f0       	breq	.+22     	; 0x1eec <vfprintf+0x354>
    1ed6:	31 ff       	sbrs	r19, 1
    1ed8:	02 c0       	rjmp	.+4      	; 0x1ede <vfprintf+0x346>
    1eda:	8b e2       	ldi	r24, 0x2B	; 43
    1edc:	01 c0       	rjmp	.+2      	; 0x1ee0 <vfprintf+0x348>
    1ede:	80 e2       	ldi	r24, 0x20	; 32
    1ee0:	37 fd       	sbrc	r19, 7
    1ee2:	8d e2       	ldi	r24, 0x2D	; 45
    1ee4:	b7 01       	movw	r22, r14
    1ee6:	90 e0       	ldi	r25, 0x00	; 0
    1ee8:	0e 94 b4 0f 	call	0x1f68	; 0x1f68 <fputc>
    1eec:	a5 14       	cp	r10, r5
    1eee:	38 f4       	brcc	.+14     	; 0x1efe <vfprintf+0x366>
    1ef0:	b7 01       	movw	r22, r14
    1ef2:	80 e3       	ldi	r24, 0x30	; 48
    1ef4:	90 e0       	ldi	r25, 0x00	; 0
    1ef6:	0e 94 b4 0f 	call	0x1f68	; 0x1f68 <fputc>
    1efa:	5a 94       	dec	r5
    1efc:	f7 cf       	rjmp	.-18     	; 0x1eec <vfprintf+0x354>
    1efe:	aa 94       	dec	r10
    1f00:	f4 01       	movw	r30, r8
    1f02:	ea 0d       	add	r30, r10
    1f04:	f1 1d       	adc	r31, r1
    1f06:	80 81       	ld	r24, Z
    1f08:	b7 01       	movw	r22, r14
    1f0a:	90 e0       	ldi	r25, 0x00	; 0
    1f0c:	0e 94 b4 0f 	call	0x1f68	; 0x1f68 <fputc>
    1f10:	a1 10       	cpse	r10, r1
    1f12:	f5 cf       	rjmp	.-22     	; 0x1efe <vfprintf+0x366>
    1f14:	33 20       	and	r3, r3
    1f16:	09 f4       	brne	.+2      	; 0x1f1a <vfprintf+0x382>
    1f18:	51 ce       	rjmp	.-862    	; 0x1bbc <vfprintf+0x24>
    1f1a:	b7 01       	movw	r22, r14
    1f1c:	80 e2       	ldi	r24, 0x20	; 32
    1f1e:	90 e0       	ldi	r25, 0x00	; 0
    1f20:	0e 94 b4 0f 	call	0x1f68	; 0x1f68 <fputc>
    1f24:	3a 94       	dec	r3
    1f26:	f6 cf       	rjmp	.-20     	; 0x1f14 <vfprintf+0x37c>
    1f28:	f7 01       	movw	r30, r14
    1f2a:	86 81       	ldd	r24, Z+6	; 0x06
    1f2c:	97 81       	ldd	r25, Z+7	; 0x07
    1f2e:	02 c0       	rjmp	.+4      	; 0x1f34 <vfprintf+0x39c>
    1f30:	8f ef       	ldi	r24, 0xFF	; 255
    1f32:	9f ef       	ldi	r25, 0xFF	; 255
    1f34:	2c 96       	adiw	r28, 0x0c	; 12
    1f36:	e2 e1       	ldi	r30, 0x12	; 18
    1f38:	0c 94 66 10 	jmp	0x20cc	; 0x20cc <__epilogue_restores__>

00001f3c <strnlen_P>:
    1f3c:	fc 01       	movw	r30, r24
    1f3e:	05 90       	lpm	r0, Z+
    1f40:	61 50       	subi	r22, 0x01	; 1
    1f42:	70 40       	sbci	r23, 0x00	; 0
    1f44:	01 10       	cpse	r0, r1
    1f46:	d8 f7       	brcc	.-10     	; 0x1f3e <strnlen_P+0x2>
    1f48:	80 95       	com	r24
    1f4a:	90 95       	com	r25
    1f4c:	8e 0f       	add	r24, r30
    1f4e:	9f 1f       	adc	r25, r31
    1f50:	08 95       	ret

00001f52 <strnlen>:
    1f52:	fc 01       	movw	r30, r24
    1f54:	61 50       	subi	r22, 0x01	; 1
    1f56:	70 40       	sbci	r23, 0x00	; 0
    1f58:	01 90       	ld	r0, Z+
    1f5a:	01 10       	cpse	r0, r1
    1f5c:	d8 f7       	brcc	.-10     	; 0x1f54 <strnlen+0x2>
    1f5e:	80 95       	com	r24
    1f60:	90 95       	com	r25
    1f62:	8e 0f       	add	r24, r30
    1f64:	9f 1f       	adc	r25, r31
    1f66:	08 95       	ret

00001f68 <fputc>:
    1f68:	0f 93       	push	r16
    1f6a:	1f 93       	push	r17
    1f6c:	cf 93       	push	r28
    1f6e:	df 93       	push	r29
    1f70:	fb 01       	movw	r30, r22
    1f72:	23 81       	ldd	r18, Z+3	; 0x03
    1f74:	21 fd       	sbrc	r18, 1
    1f76:	03 c0       	rjmp	.+6      	; 0x1f7e <fputc+0x16>
    1f78:	8f ef       	ldi	r24, 0xFF	; 255
    1f7a:	9f ef       	ldi	r25, 0xFF	; 255
    1f7c:	28 c0       	rjmp	.+80     	; 0x1fce <fputc+0x66>
    1f7e:	22 ff       	sbrs	r18, 2
    1f80:	16 c0       	rjmp	.+44     	; 0x1fae <fputc+0x46>
    1f82:	46 81       	ldd	r20, Z+6	; 0x06
    1f84:	57 81       	ldd	r21, Z+7	; 0x07
    1f86:	24 81       	ldd	r18, Z+4	; 0x04
    1f88:	35 81       	ldd	r19, Z+5	; 0x05
    1f8a:	42 17       	cp	r20, r18
    1f8c:	53 07       	cpc	r21, r19
    1f8e:	44 f4       	brge	.+16     	; 0x1fa0 <fputc+0x38>
    1f90:	a0 81       	ld	r26, Z
    1f92:	b1 81       	ldd	r27, Z+1	; 0x01
    1f94:	9d 01       	movw	r18, r26
    1f96:	2f 5f       	subi	r18, 0xFF	; 255
    1f98:	3f 4f       	sbci	r19, 0xFF	; 255
    1f9a:	31 83       	std	Z+1, r19	; 0x01
    1f9c:	20 83       	st	Z, r18
    1f9e:	8c 93       	st	X, r24
    1fa0:	26 81       	ldd	r18, Z+6	; 0x06
    1fa2:	37 81       	ldd	r19, Z+7	; 0x07
    1fa4:	2f 5f       	subi	r18, 0xFF	; 255
    1fa6:	3f 4f       	sbci	r19, 0xFF	; 255
    1fa8:	37 83       	std	Z+7, r19	; 0x07
    1faa:	26 83       	std	Z+6, r18	; 0x06
    1fac:	10 c0       	rjmp	.+32     	; 0x1fce <fputc+0x66>
    1fae:	eb 01       	movw	r28, r22
    1fb0:	09 2f       	mov	r16, r25
    1fb2:	18 2f       	mov	r17, r24
    1fb4:	00 84       	ldd	r0, Z+8	; 0x08
    1fb6:	f1 85       	ldd	r31, Z+9	; 0x09
    1fb8:	e0 2d       	mov	r30, r0
    1fba:	09 95       	icall
    1fbc:	89 2b       	or	r24, r25
    1fbe:	e1 f6       	brne	.-72     	; 0x1f78 <fputc+0x10>
    1fc0:	8e 81       	ldd	r24, Y+6	; 0x06
    1fc2:	9f 81       	ldd	r25, Y+7	; 0x07
    1fc4:	01 96       	adiw	r24, 0x01	; 1
    1fc6:	9f 83       	std	Y+7, r25	; 0x07
    1fc8:	8e 83       	std	Y+6, r24	; 0x06
    1fca:	81 2f       	mov	r24, r17
    1fcc:	90 2f       	mov	r25, r16
    1fce:	df 91       	pop	r29
    1fd0:	cf 91       	pop	r28
    1fd2:	1f 91       	pop	r17
    1fd4:	0f 91       	pop	r16
    1fd6:	08 95       	ret

00001fd8 <__ultoa_invert>:
    1fd8:	fa 01       	movw	r30, r20
    1fda:	aa 27       	eor	r26, r26
    1fdc:	28 30       	cpi	r18, 0x08	; 8
    1fde:	51 f1       	breq	.+84     	; 0x2034 <__ultoa_invert+0x5c>
    1fe0:	20 31       	cpi	r18, 0x10	; 16
    1fe2:	81 f1       	breq	.+96     	; 0x2044 <__ultoa_invert+0x6c>
    1fe4:	e8 94       	clt
    1fe6:	6f 93       	push	r22
    1fe8:	6e 7f       	andi	r22, 0xFE	; 254
    1fea:	6e 5f       	subi	r22, 0xFE	; 254
    1fec:	7f 4f       	sbci	r23, 0xFF	; 255
    1fee:	8f 4f       	sbci	r24, 0xFF	; 255
    1ff0:	9f 4f       	sbci	r25, 0xFF	; 255
    1ff2:	af 4f       	sbci	r26, 0xFF	; 255
    1ff4:	b1 e0       	ldi	r27, 0x01	; 1
    1ff6:	3e d0       	rcall	.+124    	; 0x2074 <__ultoa_invert+0x9c>
    1ff8:	b4 e0       	ldi	r27, 0x04	; 4
    1ffa:	3c d0       	rcall	.+120    	; 0x2074 <__ultoa_invert+0x9c>
    1ffc:	67 0f       	add	r22, r23
    1ffe:	78 1f       	adc	r23, r24
    2000:	89 1f       	adc	r24, r25
    2002:	9a 1f       	adc	r25, r26
    2004:	a1 1d       	adc	r26, r1
    2006:	68 0f       	add	r22, r24
    2008:	79 1f       	adc	r23, r25
    200a:	8a 1f       	adc	r24, r26
    200c:	91 1d       	adc	r25, r1
    200e:	a1 1d       	adc	r26, r1
    2010:	6a 0f       	add	r22, r26
    2012:	71 1d       	adc	r23, r1
    2014:	81 1d       	adc	r24, r1
    2016:	91 1d       	adc	r25, r1
    2018:	a1 1d       	adc	r26, r1
    201a:	20 d0       	rcall	.+64     	; 0x205c <__ultoa_invert+0x84>
    201c:	09 f4       	brne	.+2      	; 0x2020 <__ultoa_invert+0x48>
    201e:	68 94       	set
    2020:	3f 91       	pop	r19
    2022:	2a e0       	ldi	r18, 0x0A	; 10
    2024:	26 9f       	mul	r18, r22
    2026:	11 24       	eor	r1, r1
    2028:	30 19       	sub	r19, r0
    202a:	30 5d       	subi	r19, 0xD0	; 208
    202c:	31 93       	st	Z+, r19
    202e:	de f6       	brtc	.-74     	; 0x1fe6 <__ultoa_invert+0xe>
    2030:	cf 01       	movw	r24, r30
    2032:	08 95       	ret
    2034:	46 2f       	mov	r20, r22
    2036:	47 70       	andi	r20, 0x07	; 7
    2038:	40 5d       	subi	r20, 0xD0	; 208
    203a:	41 93       	st	Z+, r20
    203c:	b3 e0       	ldi	r27, 0x03	; 3
    203e:	0f d0       	rcall	.+30     	; 0x205e <__ultoa_invert+0x86>
    2040:	c9 f7       	brne	.-14     	; 0x2034 <__ultoa_invert+0x5c>
    2042:	f6 cf       	rjmp	.-20     	; 0x2030 <__ultoa_invert+0x58>
    2044:	46 2f       	mov	r20, r22
    2046:	4f 70       	andi	r20, 0x0F	; 15
    2048:	40 5d       	subi	r20, 0xD0	; 208
    204a:	4a 33       	cpi	r20, 0x3A	; 58
    204c:	18 f0       	brcs	.+6      	; 0x2054 <__ultoa_invert+0x7c>
    204e:	49 5d       	subi	r20, 0xD9	; 217
    2050:	31 fd       	sbrc	r19, 1
    2052:	40 52       	subi	r20, 0x20	; 32
    2054:	41 93       	st	Z+, r20
    2056:	02 d0       	rcall	.+4      	; 0x205c <__ultoa_invert+0x84>
    2058:	a9 f7       	brne	.-22     	; 0x2044 <__ultoa_invert+0x6c>
    205a:	ea cf       	rjmp	.-44     	; 0x2030 <__ultoa_invert+0x58>
    205c:	b4 e0       	ldi	r27, 0x04	; 4
    205e:	a6 95       	lsr	r26
    2060:	97 95       	ror	r25
    2062:	87 95       	ror	r24
    2064:	77 95       	ror	r23
    2066:	67 95       	ror	r22
    2068:	ba 95       	dec	r27
    206a:	c9 f7       	brne	.-14     	; 0x205e <__ultoa_invert+0x86>
    206c:	00 97       	sbiw	r24, 0x00	; 0
    206e:	61 05       	cpc	r22, r1
    2070:	71 05       	cpc	r23, r1
    2072:	08 95       	ret
    2074:	9b 01       	movw	r18, r22
    2076:	ac 01       	movw	r20, r24
    2078:	0a 2e       	mov	r0, r26
    207a:	06 94       	lsr	r0
    207c:	57 95       	ror	r21
    207e:	47 95       	ror	r20
    2080:	37 95       	ror	r19
    2082:	27 95       	ror	r18
    2084:	ba 95       	dec	r27
    2086:	c9 f7       	brne	.-14     	; 0x207a <__ultoa_invert+0xa2>
    2088:	62 0f       	add	r22, r18
    208a:	73 1f       	adc	r23, r19
    208c:	84 1f       	adc	r24, r20
    208e:	95 1f       	adc	r25, r21
    2090:	a0 1d       	adc	r26, r0
    2092:	08 95       	ret

00002094 <__prologue_saves__>:
    2094:	2f 92       	push	r2
    2096:	3f 92       	push	r3
    2098:	4f 92       	push	r4
    209a:	5f 92       	push	r5
    209c:	6f 92       	push	r6
    209e:	7f 92       	push	r7
    20a0:	8f 92       	push	r8
    20a2:	9f 92       	push	r9
    20a4:	af 92       	push	r10
    20a6:	bf 92       	push	r11
    20a8:	cf 92       	push	r12
    20aa:	df 92       	push	r13
    20ac:	ef 92       	push	r14
    20ae:	ff 92       	push	r15
    20b0:	0f 93       	push	r16
    20b2:	1f 93       	push	r17
    20b4:	cf 93       	push	r28
    20b6:	df 93       	push	r29
    20b8:	cd b7       	in	r28, 0x3d	; 61
    20ba:	de b7       	in	r29, 0x3e	; 62
    20bc:	ca 1b       	sub	r28, r26
    20be:	db 0b       	sbc	r29, r27
    20c0:	0f b6       	in	r0, 0x3f	; 63
    20c2:	f8 94       	cli
    20c4:	de bf       	out	0x3e, r29	; 62
    20c6:	0f be       	out	0x3f, r0	; 63
    20c8:	cd bf       	out	0x3d, r28	; 61
    20ca:	09 94       	ijmp

000020cc <__epilogue_restores__>:
    20cc:	2a 88       	ldd	r2, Y+18	; 0x12
    20ce:	39 88       	ldd	r3, Y+17	; 0x11
    20d0:	48 88       	ldd	r4, Y+16	; 0x10
    20d2:	5f 84       	ldd	r5, Y+15	; 0x0f
    20d4:	6e 84       	ldd	r6, Y+14	; 0x0e
    20d6:	7d 84       	ldd	r7, Y+13	; 0x0d
    20d8:	8c 84       	ldd	r8, Y+12	; 0x0c
    20da:	9b 84       	ldd	r9, Y+11	; 0x0b
    20dc:	aa 84       	ldd	r10, Y+10	; 0x0a
    20de:	b9 84       	ldd	r11, Y+9	; 0x09
    20e0:	c8 84       	ldd	r12, Y+8	; 0x08
    20e2:	df 80       	ldd	r13, Y+7	; 0x07
    20e4:	ee 80       	ldd	r14, Y+6	; 0x06
    20e6:	fd 80       	ldd	r15, Y+5	; 0x05
    20e8:	0c 81       	ldd	r16, Y+4	; 0x04
    20ea:	1b 81       	ldd	r17, Y+3	; 0x03
    20ec:	aa 81       	ldd	r26, Y+2	; 0x02
    20ee:	b9 81       	ldd	r27, Y+1	; 0x01
    20f0:	ce 0f       	add	r28, r30
    20f2:	d1 1d       	adc	r29, r1
    20f4:	0f b6       	in	r0, 0x3f	; 63
    20f6:	f8 94       	cli
    20f8:	de bf       	out	0x3e, r29	; 62
    20fa:	0f be       	out	0x3f, r0	; 63
    20fc:	cd bf       	out	0x3d, r28	; 61
    20fe:	ed 01       	movw	r28, r26
    2100:	08 95       	ret

00002102 <_exit>:
    2102:	f8 94       	cli

00002104 <__stop_program>:
    2104:	ff cf       	rjmp	.-2      	; 0x2104 <__stop_program>
